

Microchip MPLAB XC8 Assembler V2.32 build 20210201212658 
                                                                                               Sun Aug 01 22:56:31 2021

Microchip MPLAB XC8 C Compiler v2.32 (Free license) build 20210201212658 Og1 
     1                           	processor	18F4520
     2                           	fnconf	rparam,??,?,0
     3                           	pagewidth 120
     4                           	opt	flic
     5                           	psect	idataCOMRAM,global,class=CODE,delta=1,noexec
     6                           	psect	idataBANK0,global,class=CODE,delta=1,noexec
     7                           	psect	idataBANK1,global,class=CODE,delta=1,noexec
     8                           	psect	idataBANK2,global,class=CODE,delta=1,noexec
     9                           	psect	cinit,global,reloc=2,class=CODE,delta=1
    10                           	psect	bssCOMRAM,global,class=COMRAM,space=1,delta=1,lowdata,noexec
    11                           	psect	dataCOMRAM,global,class=COMRAM,space=1,delta=1,lowdata,noexec
    12                           	psect	bssBANK0,global,class=BANK0,space=1,delta=1,lowdata,noexec
    13                           	psect	dataBANK0,global,class=BANK0,space=1,delta=1,lowdata,noexec
    14                           	psect	dataBANK1,global,class=BANK1,space=1,delta=1,lowdata,noexec
    15                           	psect	dataBANK2,global,class=BANK2,space=1,delta=1,lowdata,noexec
    16                           	psect	cstackCOMRAM,global,class=COMRAM,space=1,delta=1,lowdata,noexec
    17                           	psect	text0,global,reloc=2,class=CODE,delta=1
    18                           	psect	text1,global,reloc=2,class=CODE,delta=1
    19                           	psect	text2,global,reloc=2,class=CODE,delta=1
    20                           	psect	text3,global,reloc=2,class=CODE,delta=1
    21                           	psect	text4,global,reloc=2,class=CODE,delta=1
    22                           	psect	text5,global,reloc=2,class=CODE,delta=1
    23                           	psect	text6,global,reloc=2,class=CODE,delta=1
    24                           	psect	text7,global,reloc=2,class=CODE,delta=1
    25                           	psect	text8,global,reloc=2,class=CODE,delta=1
    26                           	psect	text9,global,reloc=2,class=CODE,delta=1
    27                           	psect	text10,global,reloc=2,class=CODE,delta=1
    28                           	psect	text11,global,reloc=2,class=CODE,delta=1,group=1
    29                           	psect	text12,global,reloc=2,class=CODE,delta=1,group=1
    30                           	psect	text13,global,reloc=2,class=CODE,delta=1
    31                           	psect	text14,global,reloc=2,class=CODE,delta=1
    32                           	psect	text15,global,reloc=2,class=CODE,delta=1
    33                           	psect	text16,global,reloc=2,class=CODE,delta=1
    34                           	psect	text17,global,reloc=2,class=CODE,delta=1
    35                           	psect	text18,global,reloc=2,class=CODE,delta=1
    36                           	psect	text19,global,reloc=2,class=CODE,delta=1
    37                           	psect	text20,global,reloc=2,class=CODE,delta=1
    38                           	psect	text21,global,reloc=2,class=CODE,delta=1
    39                           	psect	text22,global,reloc=2,class=CODE,delta=1
    40                           	psect	text23,global,reloc=2,class=CODE,delta=1
    41                           	psect	text24,global,reloc=2,class=CODE,delta=1
    42                           	psect	text25,global,reloc=2,class=CODE,delta=1,group=1
    43                           	psect	text26,global,reloc=2,class=CODE,delta=1,group=1
    44                           	psect	text27,global,reloc=2,class=CODE,delta=1,group=1
    45                           	psect	intsave_regs,global,class=BIGRAM,space=1,delta=1,noexec
    46                           	psect	rparam,global,class=COMRAM,space=1,delta=1,noexec
    47                           	psect	idloc,global,abs,ovrld,class=IDLOC,space=5,delta=1,noexec
    48                           	psect	config,global,abs,ovrld,class=CONFIG,space=4,delta=1,noexec
    49  0000                     
    50                           ; Version 2.32
    51                           ; Generated 02/02/2021 GMT
    52                           ; 
    53                           ; Copyright © 2021, Microchip Technology Inc. and its subsidiaries ("Microchip")
    54                           ; All rights reserved.
    55                           ; 
    56                           ; This software is developed by Microchip Technology Inc. and its subsidiaries ("Microch
      +                          ip").
    57                           ; 
    58                           ; Redistribution and use in source and binary forms, with or without modification, are
    59                           ; permitted provided that the following conditions are met:
    60                           ; 
    61                           ;     1. Redistributions of source code must retain the above copyright notice, this lis
      +                          t of
    62                           ;        conditions and the following disclaimer.
    63                           ; 
    64                           ;     2. Redistributions in binary form must reproduce the above copyright notice, this 
      +                          list
    65                           ;        of conditions and the following disclaimer in the documentation and/or other
    66                           ;        materials provided with the distribution. Publication is not required when
    67                           ;        this file is used in an embedded application.
    68                           ; 
    69                           ;     3. Microchip's name may not be used to endorse or promote products derived from th
      +                          is
    70                           ;        software without specific prior written permission.
    71                           ; 
    72                           ; THIS SOFTWARE IS PROVIDED BY MICROCHIP "AS IS" AND ANY EXPRESS OR IMPLIED WARRANTIES,
    73                           ; INCLUDING, BUT NOT LIMITED TO, THE IMPLIED WARRANTIES OF MERCHANTABILITY AND FITNESS F
      +                          OR
    74                           ; PURPOSE ARE DISCLAIMED.  IN NO EVENT SHALL MICROCHIP BE LIABLE FOR ANY DIRECT, INDIREC
      +                          T,
    75                           ; INCIDENTAL, SPECIAL, EXEMPLARY, OR CONSEQUENTIAL DAMAGES (INCLUDING BUT NOT LIMITED TO
    76                           ; PROCUREMENT OF SUBSTITUTE GOODS OR SERVICES; LOSS OF USE, DATA OR PROFITS; OR BUSINESS
    77                           ; INTERRUPTION) HOWSOEVER CAUSED AND ON ANY THEORY OF LIABILITY, WHETHER IN CONTRACT, ST
      +                          RICT
    78                           ; LIABILITY, OR TORT (INCLUDING NEGLIGENCE OR OTHERWISE) ARISING IN ANY WAY OUT OF THE U
      +                          SE OF
    79                           ; THIS SOFTWARE, EVEN IF ADVISED OF THE POSSIBILITY OF SUCH DAMAGE.
    80                           ; 
    81                           ; 
    82                           ; Code-generator required, PIC18F4520 Definitions
    83                           ; 
    84                           ; SFR Addresses
    85  0000                     
    86                           	psect	idataCOMRAM
    87  005280                     __pidataCOMRAM:
    88                           	callstack 0
    89                           
    90                           ;initializer for _hor_alarm
    91  005280  30                 	db	48
    92  005281  30                 	db	48
    93  005282  3A                 	db	58
    94  005283  30                 	db	48
    95  005284  30                 	db	48
    96  005285  3A                 	db	58
    97  005286  30                 	db	48
    98  005287  30                 	db	48
    99  005288  00                 	db	0
   100  005289  00                 	db	0
   101  00528A  00                 	db	0
   102  00528B  00                 	db	0
   103  00528C  00                 	db	0
   104  00528D  00                 	db	0
   105  00528E  00                 	db	0
   106  00528F  00                 	db	0
   107                           
   108                           ;initializer for _tempo_son
   109  005290  30                 	db	48
   110  005291  35                 	db	53
   111                           
   112                           ;initializer for _tecla
   113  005292  0010               	dw	16
   114                           
   115                           	psect	idataBANK0
   116  0054CE                     __pidataBANK0:
   117                           	callstack 0
   118                           
   119                           ;initializer for _msg_senha
   120  0054CE  53                 	db	83
   121  0054CF  65                 	db	101
   122  0054D0  6E                 	db	110
   123  0054D1  68                 	db	104
   124  0054D2  61                 	db	97
   125  0054D3  3A                 	db	58
   126  0054D4  20                 	db	32
   127  0054D5  4F                 	db	79
   128  0054D6  46                 	db	70
   129  0054D7  46                 	db	70
   130  0054D8  00                 	db	0
   131  0054D9  00                 	db	0
   132  0054DA  00                 	db	0
   133  0054DB  00                 	db	0
   134  0054DC  00                 	db	0
   135  0054DD  00                 	db	0
   136  0054DE  31                 	db	49
   137  0054DF  20                 	db	32
   138  0054E0  2D                 	db	45
   139  0054E1  20                 	db	32
   140  0054E2  41                 	db	65
   141  0054E3  74                 	db	116
   142  0054E4  69                 	db	105
   143  0054E5  76                 	db	118
   144  0054E6  2F                 	db	47
   145  0054E7  44                 	db	68
   146  0054E8  65                 	db	101
   147  0054E9  73                 	db	115
   148  0054EA  61                 	db	97
   149  0054EB  74                 	db	116
   150  0054EC  00                 	db	0
   151  0054ED  00                 	db	0
   152  0054EE  32                 	db	50
   153  0054EF  20                 	db	32
   154  0054F0  2D                 	db	45
   155  0054F1  20                 	db	32
   156  0054F2  41                 	db	65
   157  0054F3  6C                 	db	108
   158  0054F4  74                 	db	116
   159  0054F5  65                 	db	101
   160  0054F6  72                 	db	114
   161  0054F7  20                 	db	32
   162  0054F8  53                 	db	83
   163  0054F9  65                 	db	101
   164  0054FA  6E                 	db	110
   165  0054FB  68                 	db	104
   166  0054FC  61                 	db	97
   167  0054FD  00                 	db	0
   168  0054FE  2A                 	db	42
   169  0054FF  20                 	db	32
   170  005500  2D                 	db	45
   171  005501  20                 	db	32
   172  005502  56                 	db	86
   173  005503  6F                 	db	111
   174  005504  6C                 	db	108
   175  005505  74                 	db	116
   176  005506  61                 	db	97
   177  005507  72                 	db	114
   178  005508  00                 	db	0
   179  005509  00                 	db	0
   180  00550A  00                 	db	0
   181  00550B  00                 	db	0
   182  00550C  00                 	db	0
   183  00550D  00                 	db	0
   184                           
   185                           ;initializer for _msg_luzes
   186  00550E  4C                 	db	76
   187  00550F  75                 	db	117
   188  005510  7A                 	db	122
   189  005511  65                 	db	101
   190  005512  73                 	db	115
   191  005513  3A                 	db	58
   192  005514  20                 	db	32
   193  005515  4F                 	db	79
   194  005516  46                 	db	70
   195  005517  46                 	db	70
   196  005518  00                 	db	0
   197  005519  00                 	db	0
   198  00551A  00                 	db	0
   199  00551B  00                 	db	0
   200  00551C  00                 	db	0
   201  00551D  00                 	db	0
   202  00551E  31                 	db	49
   203  00551F  20                 	db	32
   204  005520  2D                 	db	45
   205  005521  20                 	db	32
   206  005522  41                 	db	65
   207  005523  74                 	db	116
   208  005524  69                 	db	105
   209  005525  76                 	db	118
   210  005526  2F                 	db	47
   211  005527  44                 	db	68
   212  005528  65                 	db	101
   213  005529  73                 	db	115
   214  00552A  61                 	db	97
   215  00552B  74                 	db	116
   216  00552C  00                 	db	0
   217  00552D  00                 	db	0
   218  00552E  2A                 	db	42
   219  00552F  20                 	db	32
   220  005530  2D                 	db	45
   221  005531  20                 	db	32
   222  005532  56                 	db	86
   223  005533  6F                 	db	111
   224  005534  6C                 	db	108
   225  005535  74                 	db	116
   226  005536  61                 	db	97
   227  005537  72                 	db	114
   228  005538  00                 	db	0
   229  005539  00                 	db	0
   230  00553A  00                 	db	0
   231  00553B  00                 	db	0
   232  00553C  00                 	db	0
   233  00553D  00                 	db	0
   234                           
   235                           	psect	idataBANK1
   236  0059C4                     __pidataBANK1:
   237                           	callstack 0
   238                           
   239                           ;initializer for _msg_soneca
   240  0059C4  53                 	db	83
   241  0059C5  6F                 	db	111
   242  0059C6  6E                 	db	110
   243  0059C7  65                 	db	101
   244  0059C8  63                 	db	99
   245  0059C9  61                 	db	97
   246  0059CA  3A                 	db	58
   247  0059CB  20                 	db	32
   248  0059CC  4F                 	db	79
   249  0059CD  46                 	db	70
   250  0059CE  46                 	db	70
   251  0059CF  00                 	db	0
   252  0059D0  00                 	db	0
   253  0059D1  00                 	db	0
   254  0059D2  00                 	db	0
   255  0059D3  00                 	db	0
   256  0059D4  31                 	db	49
   257  0059D5  20                 	db	32
   258  0059D6  2D                 	db	45
   259  0059D7  20                 	db	32
   260  0059D8  41                 	db	65
   261  0059D9  74                 	db	116
   262  0059DA  69                 	db	105
   263  0059DB  76                 	db	118
   264  0059DC  2F                 	db	47
   265  0059DD  44                 	db	68
   266  0059DE  65                 	db	101
   267  0059DF  73                 	db	115
   268  0059E0  61                 	db	97
   269  0059E1  74                 	db	116
   270  0059E2  00                 	db	0
   271  0059E3  00                 	db	0
   272  0059E4  32                 	db	50
   273  0059E5  20                 	db	32
   274  0059E6  2D                 	db	45
   275  0059E7  20                 	db	32
   276  0059E8  41                 	db	65
   277  0059E9  6A                 	db	106
   278  0059EA  75                 	db	117
   279  0059EB  73                 	db	115
   280  0059EC  74                 	db	116
   281  0059ED  20                 	db	32
   282  0059EE  54                 	db	84
   283  0059EF  65                 	db	101
   284  0059F0  6D                 	db	109
   285  0059F1  70                 	db	112
   286  0059F2  6F                 	db	111
   287  0059F3  00                 	db	0
   288  0059F4  2A                 	db	42
   289  0059F5  20                 	db	32
   290  0059F6  2D                 	db	45
   291  0059F7  20                 	db	32
   292  0059F8  56                 	db	86
   293  0059F9  6F                 	db	111
   294  0059FA  6C                 	db	108
   295  0059FB  74                 	db	116
   296  0059FC  61                 	db	97
   297  0059FD  72                 	db	114
   298  0059FE  00                 	db	0
   299  0059FF  00                 	db	0
   300  005A00  00                 	db	0
   301  005A01  00                 	db	0
   302  005A02  00                 	db	0
   303  005A03  00                 	db	0
   304                           
   305                           ;initializer for _msg_opc_alarm
   306  005A04  31                 	db	49
   307  005A05  20                 	db	32
   308  005A06  2D                 	db	45
   309  005A07  20                 	db	32
   310  005A08  41                 	db	65
   311  005A09  63                 	db	99
   312  005A0A  65                 	db	101
   313  005A0B  6E                 	db	110
   314  005A0C  64                 	db	100
   315  005A0D  20                 	db	32
   316  005A0E  4C                 	db	76
   317  005A0F  75                 	db	117
   318  005A10  7A                 	db	122
   319  005A11  65                 	db	101
   320  005A12  73                 	db	115
   321  005A13  00                 	db	0
   322  005A14  32                 	db	50
   323  005A15  20                 	db	32
   324  005A16  2D                 	db	45
   325  005A17  20                 	db	32
   326  005A18  53                 	db	83
   327  005A19  65                 	db	101
   328  005A1A  6E                 	db	110
   329  005A1B  68                 	db	104
   330  005A1C  61                 	db	97
   331  005A1D  20                 	db	32
   332  005A1E  70                 	db	112
   333  005A1F  2F                 	db	47
   334  005A20  20                 	db	32
   335  005A21  44                 	db	68
   336  005A22  65                 	db	101
   337  005A23  73                 	db	115
   338  005A24  33                 	db	51
   339  005A25  20                 	db	32
   340  005A26  2D                 	db	45
   341  005A27  20                 	db	32
   342  005A28  53                 	db	83
   343  005A29  6F                 	db	111
   344  005A2A  6E                 	db	110
   345  005A2B  65                 	db	101
   346  005A2C  63                 	db	99
   347  005A2D  61                 	db	97
   348  005A2E  00                 	db	0
   349  005A2F  00                 	db	0
   350  005A30  00                 	db	0
   351  005A31  00                 	db	0
   352  005A32  00                 	db	0
   353  005A33  00                 	db	0
   354  005A34  2A                 	db	42
   355  005A35  20                 	db	32
   356  005A36  2D                 	db	45
   357  005A37  20                 	db	32
   358  005A38  56                 	db	86
   359  005A39  6F                 	db	111
   360  005A3A  6C                 	db	108
   361  005A3B  74                 	db	116
   362  005A3C  61                 	db	97
   363  005A3D  72                 	db	114
   364  005A3E  00                 	db	0
   365  005A3F  00                 	db	0
   366  005A40  00                 	db	0
   367  005A41  00                 	db	0
   368  005A42  00                 	db	0
   369  005A43  00                 	db	0
   370                           
   371                           ;initializer for _msg_ajus_alarm
   372  005A44  31                 	db	49
   373  005A45  20                 	db	32
   374  005A46  61                 	db	97
   375  005A47  20                 	db	32
   376  005A48  36                 	db	54
   377  005A49  20                 	db	32
   378  005A4A  2D                 	db	45
   379  005A4B  20                 	db	32
   380  005A4C  41                 	db	65
   381  005A4D  6A                 	db	106
   382  005A4E  75                 	db	117
   383  005A4F  73                 	db	115
   384  005A50  74                 	db	116
   385  005A51  61                 	db	97
   386  005A52  72                 	db	114
   387  005A53  00                 	db	0
   388  005A54  2A                 	db	42
   389  005A55  20                 	db	32
   390  005A56  2D                 	db	45
   391  005A57  20                 	db	32
   392  005A58  43                 	db	67
   393  005A59  61                 	db	97
   394  005A5A  6E                 	db	110
   395  005A5B  63                 	db	99
   396  005A5C  65                 	db	101
   397  005A5D  6C                 	db	108
   398  005A5E  61                 	db	97
   399  005A5F  72                 	db	114
   400  005A60  00                 	db	0
   401  005A61  00                 	db	0
   402  005A62  00                 	db	0
   403  005A63  00                 	db	0
   404  005A64  23                 	db	35
   405  005A65  20                 	db	32
   406  005A66  2D                 	db	45
   407  005A67  20                 	db	32
   408  005A68  53                 	db	83
   409  005A69  61                 	db	97
   410  005A6A  6C                 	db	108
   411  005A6B  76                 	db	118
   412  005A6C  61                 	db	97
   413  005A6D  72                 	db	114
   414  005A6E  00                 	db	0
   415  005A6F  00                 	db	0
   416  005A70  00                 	db	0
   417  005A71  00                 	db	0
   418  005A72  00                 	db	0
   419  005A73  00                 	db	0
   420                           
   421                           ;initializer for _msg_principal
   422  005A74  31                 	db	49
   423  005A75  2D                 	db	45
   424  005A76  20                 	db	32
   425  005A77  41                 	db	65
   426  005A78  6A                 	db	106
   427  005A79  75                 	db	117
   428  005A7A  73                 	db	115
   429  005A7B  74                 	db	116
   430  005A7C  61                 	db	97
   431  005A7D  72                 	db	114
   432  005A7E  20                 	db	32
   433  005A7F  41                 	db	65
   434  005A80  6C                 	db	108
   435  005A81  61                 	db	97
   436  005A82  72                 	db	114
   437  005A83  6D                 	db	109
   438  005A84  32                 	db	50
   439  005A85  2D                 	db	45
   440  005A86  20                 	db	32
   441  005A87  4F                 	db	79
   442  005A88  70                 	db	112
   443  005A89  63                 	db	99
   444  005A8A  6F                 	db	111
   445  005A8B  65                 	db	101
   446  005A8C  73                 	db	115
   447  005A8D  20                 	db	32
   448  005A8E  41                 	db	65
   449  005A8F  6C                 	db	108
   450  005A90  61                 	db	97
   451  005A91  72                 	db	114
   452  005A92  6D                 	db	109
   453  005A93  00                 	db	0
   454                           
   455                           	psect	idataBANK2
   456  005B6C                     __pidataBANK2:
   457                           	callstack 0
   458                           
   459                           ;initializer for _msg_alarm_ativ
   460  005B6C  2A                 	db	42
   461  005B6D  20                 	db	32
   462  005B6E  2D                 	db	45
   463  005B6F  20                 	db	32
   464  005B70  44                 	db	68
   465  005B71  65                 	db	101
   466  005B72  73                 	db	115
   467  005B73  61                 	db	97
   468  005B74  74                 	db	116
   469  005B75  69                 	db	105
   470  005B76  76                 	db	118
   471  005B77  61                 	db	97
   472  005B78  72                 	db	114
   473  005B79  00                 	db	0
   474  005B7A  00                 	db	0
   475  005B7B  00                 	db	0
   476  005B7C  23                 	db	35
   477  005B7D  20                 	db	32
   478  005B7E  2D                 	db	45
   479  005B7F  20                 	db	32
   480  005B80  53                 	db	83
   481  005B81  6F                 	db	111
   482  005B82  6E                 	db	110
   483  005B83  65                 	db	101
   484  005B84  63                 	db	99
   485  005B85  61                 	db	97
   486  005B86  00                 	db	0
   487  005B87  00                 	db	0
   488  005B88  00                 	db	0
   489  005B89  00                 	db	0
   490  005B8A  00                 	db	0
   491  005B8B  00                 	db	0
   492  005B8C  53                 	db	83
   493  005B8D  65                 	db	101
   494  005B8E  6E                 	db	110
   495  005B8F  68                 	db	104
   496  005B90  61                 	db	97
   497  005B91  3A                 	db	58
   498  005B92  20                 	db	32
   499  005B93  00                 	db	0
   500  005B94  00                 	db	0
   501  005B95  00                 	db	0
   502  005B96  00                 	db	0
   503  005B97  00                 	db	0
   504  005B98  00                 	db	0
   505  005B99  00                 	db	0
   506  005B9A  00                 	db	0
   507  005B9B  00                 	db	0
   508  005B9C  53                 	db	83
   509  005B9D  65                 	db	101
   510  005B9E  6E                 	db	110
   511  005B9F  68                 	db	104
   512  005BA0  61                 	db	97
   513  005BA1  20                 	db	32
   514  005BA2  49                 	db	73
   515  005BA3  6E                 	db	110
   516  005BA4  63                 	db	99
   517  005BA5  6F                 	db	111
   518  005BA6  72                 	db	114
   519  005BA7  72                 	db	114
   520  005BA8  65                 	db	101
   521  005BA9  74                 	db	116
   522  005BAA  61                 	db	97
   523  005BAB  21                 	db	33
   524  005BAC  44                 	db	68
   525  005BAD  69                 	db	105
   526  005BAE  67                 	db	103
   527  005BAF  69                 	db	105
   528  005BB0  74                 	db	116
   529  005BB1  65                 	db	101
   530  005BB2  20                 	db	32
   531  005BB3  6E                 	db	110
   532  005BB4  6F                 	db	111
   533  005BB5  76                 	db	118
   534  005BB6  61                 	db	97
   535  005BB7  6D                 	db	109
   536  005BB8  65                 	db	101
   537  005BB9  6E                 	db	110
   538  005BBA  74                 	db	116
   539  005BBB  65                 	db	101
   540  005BBC  53                 	db	83
   541  005BBD  6F                 	db	111
   542  005BBE  6E                 	db	110
   543  005BBF  65                 	db	101
   544  005BC0  63                 	db	99
   545  005BC1  61                 	db	97
   546  005BC2  20                 	db	32
   547  005BC3  41                 	db	65
   548  005BC4  74                 	db	116
   549  005BC5  69                 	db	105
   550  005BC6  76                 	db	118
   551  005BC7  61                 	db	97
   552  005BC8  64                 	db	100
   553  005BC9  61                 	db	97
   554  005BCA  00                 	db	0
   555  005BCB  00                 	db	0
   556  005BCC  4E                 	db	78
   557  005BCD  6F                 	db	111
   558  005BCE  76                 	db	118
   559  005BCF  6F                 	db	111
   560  005BD0  20                 	db	32
   561  005BD1  68                 	db	104
   562  005BD2  6F                 	db	111
   563  005BD3  72                 	db	114
   564  005BD4  61                 	db	97
   565  005BD5  72                 	db	114
   566  005BD6  69                 	db	105
   567  005BD7  6F                 	db	111
   568  005BD8  3A                 	db	58
   569  005BD9  00                 	db	0
   570  005BDA  00                 	db	0
   571  005BDB  00                 	db	0
   572                           
   573                           ;initializer for _msg_ajus_tempo
   574  005BDC  54                 	db	84
   575  005BDD  65                 	db	101
   576  005BDE  6D                 	db	109
   577  005BDF  70                 	db	112
   578  005BE0  6F                 	db	111
   579  005BE1  3A                 	db	58
   580  005BE2  20                 	db	32
   581  005BE3  20                 	db	32
   582  005BE4  20                 	db	32
   583  005BE5  20                 	db	32
   584  005BE6  73                 	db	115
   585  005BE7  65                 	db	101
   586  005BE8  67                 	db	103
   587  005BE9  00                 	db	0
   588  005BEA  00                 	db	0
   589  005BEB  00                 	db	0
   590  005BEC  31                 	db	49
   591  005BED  20                 	db	32
   592  005BEE  2D                 	db	45
   593  005BEF  20                 	db	32
   594  005BF0  41                 	db	65
   595  005BF1  75                 	db	117
   596  005BF2  6D                 	db	109
   597  005BF3  65                 	db	101
   598  005BF4  6E                 	db	110
   599  005BF5  74                 	db	116
   600  005BF6  61                 	db	97
   601  005BF7  72                 	db	114
   602  005BF8  00                 	db	0
   603  005BF9  00                 	db	0
   604  005BFA  00                 	db	0
   605  005BFB  00                 	db	0
   606  005BFC  32                 	db	50
   607  005BFD  20                 	db	32
   608  005BFE  2D                 	db	45
   609  005BFF  20                 	db	32
   610  005C00  44                 	db	68
   611  005C01  69                 	db	105
   612  005C02  6D                 	db	109
   613  005C03  69                 	db	105
   614  005C04  6E                 	db	110
   615  005C05  75                 	db	117
   616  005C06  69                 	db	105
   617  005C07  72                 	db	114
   618  005C08  00                 	db	0
   619  005C09  00                 	db	0
   620  005C0A  00                 	db	0
   621  005C0B  00                 	db	0
   622  005C0C  2A                 	db	42
   623  005C0D  20                 	db	32
   624  005C0E  2D                 	db	45
   625  005C0F  20                 	db	32
   626  005C10  56                 	db	86
   627  005C11  6F                 	db	111
   628  005C12  6C                 	db	108
   629  005C13  74                 	db	116
   630  005C14  61                 	db	97
   631  005C15  72                 	db	114
   632  005C16  00                 	db	0
   633  005C17  00                 	db	0
   634  005C18  00                 	db	0
   635  005C19  00                 	db	0
   636  005C1A  00                 	db	0
   637  005C1B  00                 	db	0
   638                           
   639                           ;initializer for _msg_alt_senha
   640  005C1C  41                 	db	65
   641  005C1D  74                 	db	116
   642  005C1E  75                 	db	117
   643  005C1F  61                 	db	97
   644  005C20  6C                 	db	108
   645  005C21  3A                 	db	58
   646  005C22  20                 	db	32
   647  005C23  00                 	db	0
   648  005C24  00                 	db	0
   649  005C25  00                 	db	0
   650  005C26  00                 	db	0
   651  005C27  00                 	db	0
   652  005C28  00                 	db	0
   653  005C29  00                 	db	0
   654  005C2A  00                 	db	0
   655  005C2B  00                 	db	0
   656  005C2C  44                 	db	68
   657  005C2D  69                 	db	105
   658  005C2E  67                 	db	103
   659  005C2F  69                 	db	105
   660  005C30  74                 	db	116
   661  005C31  65                 	db	101
   662  005C32  3A                 	db	58
   663  005C33  20                 	db	32
   664  005C34  00                 	db	0
   665  005C35  00                 	db	0
   666  005C36  00                 	db	0
   667  005C37  00                 	db	0
   668  005C38  00                 	db	0
   669  005C39  00                 	db	0
   670  005C3A  00                 	db	0
   671  005C3B  00                 	db	0
   672  005C3C  2A                 	db	42
   673  005C3D  20                 	db	32
   674  005C3E  2D                 	db	45
   675  005C3F  20                 	db	32
   676  005C40  43                 	db	67
   677  005C41  61                 	db	97
   678  005C42  6E                 	db	110
   679  005C43  63                 	db	99
   680  005C44  65                 	db	101
   681  005C45  6C                 	db	108
   682  005C46  61                 	db	97
   683  005C47  72                 	db	114
   684  005C48  00                 	db	0
   685  005C49  00                 	db	0
   686  005C4A  00                 	db	0
   687  005C4B  00                 	db	0
   688  005C4C  23                 	db	35
   689  005C4D  20                 	db	32
   690  005C4E  2D                 	db	45
   691  005C4F  20                 	db	32
   692  005C50  53                 	db	83
   693  005C51  61                 	db	97
   694  005C52  6C                 	db	108
   695  005C53  76                 	db	118
   696  005C54  61                 	db	97
   697  005C55  72                 	db	114
   698  005C56  00                 	db	0
   699  005C57  00                 	db	0
   700  005C58  00                 	db	0
   701  005C59  00                 	db	0
   702  005C5A  00                 	db	0
   703  005C5B  00                 	db	0
   704  0000                     _PORTCbits	set	3970
   705  0000                     _TRISCbits	set	3988
   706  0000                     _TRISE	set	3990
   707  0000                     _TRISD	set	3989
   708  0000                     _TRISC	set	3988
   709  0000                     _TRISB	set	3987
   710  0000                     _TRISA	set	3986
   711  0000                     _PORTE	set	3972
   712  0000                     _PORTD	set	3971
   713  0000                     _PORTC	set	3970
   714  0000                     _PORTB	set	3969
   715  0000                     _PORTA	set	3968
   716                           
   717                           ; #config settings
   718                           
   719                           	psect	cinit
   720  0057B2                     __pcinit:
   721                           	callstack 0
   722  0057B2                     start_initialization:
   723                           	callstack 0
   724  0057B2                     __initialization:
   725                           	callstack 0
   726                           
   727                           ; Initialize objects allocated to BANK2 (240 bytes)
   728                           ; load TBLPTR registers with __pidataBANK2
   729  0057B2  0E6C               	movlw	low __pidataBANK2
   730  0057B4  6EF6               	movwf	tblptrl,c
   731  0057B6  0E5B               	movlw	high __pidataBANK2
   732  0057B8  6EF7               	movwf	tblptrh,c
   733  0057BA  0E00               	movlw	low (__pidataBANK2 shr (0+16))
   734  0057BC  6EF8               	movwf	tblptru,c
   735  0057BE  EE02  F000         	lfsr	0,__pdataBANK2
   736  0057C2  EE10 F0F0          	lfsr	1,240
   737  0057C6                     copy_data0:
   738  0057C6  0009               	tblrd		*+
   739  0057C8  CFF5 FFEE          	movff	tablat,postinc0
   740  0057CC  50E5               	movf	postdec1,w,c
   741  0057CE  50E1               	movf	fsr1l,w,c
   742  0057D0  E1FA               	bnz	copy_data0
   743                           
   744                           ; Initialize objects allocated to BANK1 (208 bytes)
   745                           ; load TBLPTR registers with __pidataBANK1
   746  0057D2  0EC4               	movlw	low __pidataBANK1
   747  0057D4  6EF6               	movwf	tblptrl,c
   748  0057D6  0E59               	movlw	high __pidataBANK1
   749  0057D8  6EF7               	movwf	tblptrh,c
   750  0057DA  0E00               	movlw	low (__pidataBANK1 shr (0+16))
   751  0057DC  6EF8               	movwf	tblptru,c
   752  0057DE  EE01  F000         	lfsr	0,__pdataBANK1
   753  0057E2  EE10 F0D0          	lfsr	1,208
   754  0057E6                     copy_data1:
   755  0057E6  0009               	tblrd		*+
   756  0057E8  CFF5 FFEE          	movff	tablat,postinc0
   757  0057EC  50E5               	movf	postdec1,w,c
   758  0057EE  50E1               	movf	fsr1l,w,c
   759  0057F0  E1FA               	bnz	copy_data1
   760                           
   761                           ; Initialize objects allocated to BANK0 (112 bytes)
   762                           ; load TBLPTR registers with __pidataBANK0
   763  0057F2  0ECE               	movlw	low __pidataBANK0
   764  0057F4  6EF6               	movwf	tblptrl,c
   765  0057F6  0E54               	movlw	high __pidataBANK0
   766  0057F8  6EF7               	movwf	tblptrh,c
   767  0057FA  0E00               	movlw	low (__pidataBANK0 shr (0+16))
   768  0057FC  6EF8               	movwf	tblptru,c
   769  0057FE  EE00  F080         	lfsr	0,__pdataBANK0
   770  005802  EE10 F070          	lfsr	1,112
   771  005806                     copy_data2:
   772  005806  0009               	tblrd		*+
   773  005808  CFF5 FFEE          	movff	tablat,postinc0
   774  00580C  50E5               	movf	postdec1,w,c
   775  00580E  50E1               	movf	fsr1l,w,c
   776  005810  E1FA               	bnz	copy_data2
   777                           
   778                           ; Initialize objects allocated to COMRAM (20 bytes)
   779                           ; load TBLPTR registers with __pidataCOMRAM
   780  005812  0E80               	movlw	low __pidataCOMRAM
   781  005814  6EF6               	movwf	tblptrl,c
   782  005816  0E52               	movlw	high __pidataCOMRAM
   783  005818  6EF7               	movwf	tblptrh,c
   784  00581A  0E00               	movlw	low (__pidataCOMRAM shr (0+16))
   785  00581C  6EF8               	movwf	tblptru,c
   786  00581E  EE00  F064         	lfsr	0,__pdataCOMRAM
   787  005822  EE10 F014          	lfsr	1,20
   788  005826                     copy_data3:
   789  005826  0009               	tblrd		*+
   790  005828  CFF5 FFEE          	movff	tablat,postinc0
   791  00582C  50E5               	movf	postdec1,w,c
   792  00582E  50E1               	movf	fsr1l,w,c
   793  005830  E1FA               	bnz	copy_data3
   794                           
   795                           ; Clear objects allocated to BANK0 (16 bytes)
   796  005832  EE00  F0F0         	lfsr	0,__pbssBANK0
   797  005836  0E10               	movlw	16
   798  005838                     clear_0:
   799  005838  6AEE               	clrf	postinc0,c
   800  00583A  06E8               	decf	wreg,f,c
   801  00583C  E1FD               	bnz	clear_0
   802                           
   803                           ; Clear objects allocated to COMRAM (73 bytes)
   804  00583E  EE00  F001         	lfsr	0,__pbssCOMRAM
   805  005842  0E49               	movlw	73
   806  005844                     clear_1:
   807  005844  6AEE               	clrf	postinc0,c
   808  005846  06E8               	decf	wreg,f,c
   809  005848  E1FD               	bnz	clear_1
   810  00584A                     end_of_initialization:
   811                           	callstack 0
   812  00584A                     __end_of__initialization:
   813                           	callstack 0
   814  00584A  0100               	movlb	0
   815  00584C  EFF0  F035         	goto	_main	;jump to C main() function
   816                           
   817                           	psect	bssCOMRAM
   818  000001                     __pbssCOMRAM:
   819                           	callstack 0
   820  000001                     _hor_relo:
   821                           	callstack 0
   822  000001                     	ds	16
   823  000011                     _time:
   824                           	callstack 0
   825  000011                     	ds	10
   826  00001B                     _date:
   827                           	callstack 0
   828  00001B                     	ds	10
   829  000025                     _aux_senha:
   830                           	callstack 0
   831  000025                     	ds	4
   832  000029                     _senha:
   833                           	callstack 0
   834  000029                     	ds	4
   835  00002D                     _cont:
   836                           	callstack 0
   837  00002D                     	ds	4
   838  000031                     _aux_tempo:
   839                           	callstack 0
   840  000031                     	ds	2
   841  000033                     _s_alar:
   842                           	callstack 0
   843  000033                     	ds	2
   844  000035                     _m_alar:
   845                           	callstack 0
   846  000035                     	ds	2
   847  000037                     _h_alar:
   848                           	callstack 0
   849  000037                     	ds	2
   850  000039                     _s_rel:
   851                           	callstack 0
   852  000039                     	ds	2
   853  00003B                     _m_rel:
   854                           	callstack 0
   855  00003B                     	ds	2
   856  00003D                     _h_rel:
   857                           	callstack 0
   858  00003D                     	ds	2
   859  00003F                     _pos:
   860                           	callstack 0
   861  00003F                     	ds	2
   862  000041                     _i:
   863                           	callstack 0
   864  000041                     	ds	2
   865  000043                     kpDebounce@valorAntigo:
   866                           	callstack 0
   867  000043                     	ds	2
   868  000045                     kpDebounce@valorNovo:
   869                           	callstack 0
   870  000045                     	ds	2
   871  000047                     _valor:
   872                           	callstack 0
   873  000047                     	ds	2
   874  000049                     kpDebounce@tempo:
   875                           	callstack 0
   876  000049                     	ds	1
   877                           
   878                           	psect	dataCOMRAM
   879  000064                     __pdataCOMRAM:
   880                           	callstack 0
   881  000064                     _hor_alarm:
   882                           	callstack 0
   883  000064                     	ds	16
   884  000074                     _tempo_son:
   885                           	callstack 0
   886  000074                     	ds	2
   887  000076                     _tecla:
   888                           	callstack 0
   889  000076                     	ds	2
   890                           
   891                           	psect	bssBANK0
   892  0000F0                     __pbssBANK0:
   893                           	callstack 0
   894  0000F0                     _aux_alarm:
   895                           	callstack 0
   896  0000F0                     	ds	16
   897                           
   898                           	psect	dataBANK0
   899  000080                     __pdataBANK0:
   900                           	callstack 0
   901  000080                     _msg_senha:
   902                           	callstack 0
   903  000080                     	ds	64
   904  0000C0                     _msg_luzes:
   905                           	callstack 0
   906  0000C0                     	ds	48
   907                           
   908                           	psect	dataBANK1
   909  000100                     __pdataBANK1:
   910                           	callstack 0
   911  000100                     _msg_soneca:
   912                           	callstack 0
   913  000100                     	ds	64
   914  000140                     _msg_opc_alarm:
   915                           	callstack 0
   916  000140                     	ds	64
   917  000180                     _msg_ajus_alarm:
   918                           	callstack 0
   919  000180                     	ds	48
   920  0001B0                     _msg_principal:
   921                           	callstack 0
   922  0001B0                     	ds	32
   923                           
   924                           	psect	dataBANK2
   925  000200                     __pdataBANK2:
   926                           	callstack 0
   927  000200                     _msg_alarm_ativ:
   928                           	callstack 0
   929  000200                     	ds	112
   930  000270                     _msg_ajus_tempo:
   931                           	callstack 0
   932  000270                     	ds	64
   933  0002B0                     _msg_alt_senha:
   934                           	callstack 0
   935  0002B0                     	ds	64
   936                           
   937                           	psect	cstackCOMRAM
   938  00004A                     __pcstackCOMRAM:
   939                           	callstack 0
   940  00004A                     ??_kpDebounce:
   941  00004A                     ?_kpRead:
   942                           	callstack 0
   943  00004A                     ?___wmul:
   944                           	callstack 0
   945  00004A                     ?___awdiv:
   946                           	callstack 0
   947  00004A                     ?___awmod:
   948                           	callstack 0
   949  00004A                     ?___lwdiv:
   950                           	callstack 0
   951  00004A                     ?___llmod:
   952                           	callstack 0
   953  00004A                     getd@nn:
   954                           	callstack 0
   955  00004A                     getu@nn:
   956                           	callstack 0
   957  00004A                     Delay40us@i:
   958                           	callstack 0
   959  00004A                     digitalWrite@pin:
   960                           	callstack 0
   961  00004A                     pinMode@pin:
   962                           	callstack 0
   963  00004A                     atraso_ms@valor:
   964                           	callstack 0
   965  00004A                     delay@i:
   966                           	callstack 0
   967  00004A                     ___wmul@multiplier:
   968                           	callstack 0
   969  00004A                     ___awdiv@dividend:
   970                           	callstack 0
   971  00004A                     ___awmod@dividend:
   972                           	callstack 0
   973  00004A                     ___lwdiv@dividend:
   974                           	callstack 0
   975  00004A                     ___llmod@dividend:
   976                           	callstack 0
   977                           
   978                           ; 4 bytes @ 0x0
   979  00004A                     	ds	1
   980  00004B                     Delay2ms@i:
   981                           	callstack 0
   982                           
   983                           ; 1 bytes @ 0x1
   984  00004B                     	ds	1
   985  00004C                     delay@j:
   986                           	callstack 0
   987  00004C                     digitalWrite@value:
   988                           	callstack 0
   989  00004C                     pinMode@type:
   990                           	callstack 0
   991  00004C                     atraso_ms@i:
   992                           	callstack 0
   993  00004C                     ___wmul@multiplicand:
   994                           	callstack 0
   995  00004C                     ___awdiv@divisor:
   996                           	callstack 0
   997  00004C                     ___awmod@divisor:
   998                           	callstack 0
   999  00004C                     ___lwdiv@divisor:
  1000                           	callstack 0
  1001                           
  1002                           ; 2 bytes @ 0x2
  1003  00004C                     	ds	1
  1004  00004D                     delay@k:
  1005                           	callstack 0
  1006                           
  1007                           ; 1 bytes @ 0x3
  1008  00004D                     	ds	1
  1009  00004E                     ??_digitalWrite:
  1010  00004E                     ??_pinMode:
  1011  00004E                     ??_i2c_wb:
  1012  00004E                     ??_i2c_rb:
  1013  00004E                     atraso_ms@j:
  1014                           	callstack 0
  1015  00004E                     ___awdiv@counter:
  1016                           	callstack 0
  1017  00004E                     ___awmod@counter:
  1018                           	callstack 0
  1019  00004E                     ___wmul@product:
  1020                           	callstack 0
  1021  00004E                     ___lwdiv@quotient:
  1022                           	callstack 0
  1023  00004E                     ___llmod@divisor:
  1024                           	callstack 0
  1025                           
  1026                           ; 4 bytes @ 0x4
  1027  00004E                     	ds	1
  1028  00004F                     kpDebounce@old_D:
  1029                           	callstack 0
  1030  00004F                     atraso_ms@k:
  1031                           	callstack 0
  1032  00004F                     ___awdiv@sign:
  1033                           	callstack 0
  1034  00004F                     ___awmod@sign:
  1035                           	callstack 0
  1036                           
  1037                           ; 1 bytes @ 0x5
  1038  00004F                     	ds	1
  1039  000050                     i2c_wb@val:
  1040                           	callstack 0
  1041  000050                     i2c_rb@ack:
  1042                           	callstack 0
  1043  000050                     lcdCommand@old_D:
  1044                           	callstack 0
  1045  000050                     lcdData@valor:
  1046                           	callstack 0
  1047  000050                     ___lwdiv@counter:
  1048                           	callstack 0
  1049  000050                     kpDebounce@k:
  1050                           	callstack 0
  1051  000050                     ___awdiv@quotient:
  1052                           	callstack 0
  1053                           
  1054                           ; 2 bytes @ 0x6
  1055  000050                     	ds	1
  1056  000051                     ??_pwmSet1:
  1057  000051                     i2c_wb@i:
  1058                           	callstack 0
  1059  000051                     i2c_rb@ret:
  1060                           	callstack 0
  1061  000051                     lcdCommand@cmd:
  1062                           	callstack 0
  1063  000051                     lcdData@old_D:
  1064                           	callstack 0
  1065                           
  1066                           ; 1 bytes @ 0x7
  1067  000051                     	ds	1
  1068  000052                     kpDebounce@j:
  1069                           	callstack 0
  1070  000052                     i2c_rb@i:
  1071                           	callstack 0
  1072  000052                     ___llmod@counter:
  1073                           	callstack 0
  1074                           
  1075                           ; 1 bytes @ 0x8
  1076  000052                     	ds	1
  1077  000053                     kpDebounce@i:
  1078                           	callstack 0
  1079  000053                     rtc_r@tmp:
  1080                           	callstack 0
  1081  000053                     pwmSet1@porcento:
  1082                           	callstack 0
  1083                           
  1084                           ; 1 bytes @ 0x9
  1085  000053                     	ds	1
  1086  000054                     pwmSet1@val:
  1087                           	callstack 0
  1088                           
  1089                           ; 2 bytes @ 0xA
  1090  000054                     	ds	2
  1091  000056                     ??_tocarAlarme:
  1092                           
  1093                           ; 1 bytes @ 0xC
  1094  000056                     	ds	2
  1095  000058                     tocarAlarme@senha_digitada:
  1096                           	callstack 0
  1097                           
  1098                           ; 4 bytes @ 0xE
  1099  000058                     	ds	4
  1100  00005C                     tocarAlarme@tmp:
  1101                           	callstack 0
  1102                           
  1103                           ; 2 bytes @ 0x12
  1104  00005C                     	ds	2
  1105  00005E                     tocarAlarme@cont:
  1106                           	callstack 0
  1107                           
  1108                           ; 2 bytes @ 0x14
  1109  00005E                     	ds	2
  1110  000060                     tocarAlarme@i:
  1111                           	callstack 0
  1112                           
  1113                           ; 2 bytes @ 0x16
  1114  000060                     	ds	2
  1115  000062                     ??_main:
  1116                           
  1117                           ; 1 bytes @ 0x18
  1118  000062                     	ds	2
  1119                           
  1120 ;;
  1121 ;;Main: autosize = 0, tempsize = 2, incstack = 0, save=0
  1122 ;;
  1123 ;; *************** function _main *****************
  1124 ;; Defined at:
  1125 ;;		line 41 in file "C:/Users/bruno/OneDrive/Documentos/ProgramacaoEmbarcada/projeto_final.X/main.c"
  1126 ;; Parameters:    Size  Location     Type
  1127 ;;		None
  1128 ;; Auto vars:     Size  Location     Type
  1129 ;;		None
  1130 ;; Return value:  Size  Location     Type
  1131 ;;                  1    wreg      void 
  1132 ;; Registers used:
  1133 ;;		wreg, fsr1l, fsr1h, fsr2l, fsr2h, status,2, status,0, prodl, prodh, cstack
  1134 ;; Tracked objects:
  1135 ;;		On entry : 0/0
  1136 ;;		On exit  : 0/0
  1137 ;;		Unchanged: 0/0
  1138 ;; Data sizes:     COMRAM   BANK0   BANK1   BANK2   BANK3   BANK4   BANK5
  1139 ;;      Params:         0       0       0       0       0       0       0
  1140 ;;      Locals:         0       0       0       0       0       0       0
  1141 ;;      Temps:          2       0       0       0       0       0       0
  1142 ;;      Totals:         2       0       0       0       0       0       0
  1143 ;;Total ram usage:        2 bytes
  1144 ;; Hardware stack levels required when called: 5
  1145 ;; This function calls:
  1146 ;;		___awdiv
  1147 ;;		___awmod
  1148 ;;		___llmod
  1149 ;;		_kpDebounce
  1150 ;;		_kpInit
  1151 ;;		_kpRead
  1152 ;;		_lcdCommand
  1153 ;;		_lcdData
  1154 ;;		_lcdInit
  1155 ;;		_pwmInit
  1156 ;;		_rtc_r
  1157 ;;		_tocarAlarme
  1158 ;; This function is called by:
  1159 ;;		Startup code after reset
  1160 ;; This function uses a non-reentrant model
  1161 ;;
  1162                           
  1163                           	psect	text0
  1164  006BE0                     __ptext0:
  1165                           	callstack 0
  1166  006BE0                     _main:
  1167                           	callstack 26
  1168  006BE0                     
  1169                           ;C:/Users/bruno/OneDrive/Documentos/ProgramacaoEmbarcada/projeto_final.X/main.c: 43:    
      +                           pwmInit();
  1170  006BE0  EC36  F029         	call	_pwmInit	;wreg free
  1171  006BE4                     
  1172                           ;C:/Users/bruno/OneDrive/Documentos/ProgramacaoEmbarcada/projeto_final.X/main.c: 44:    
      +                           TRISC = 0x00;
  1173  006BE4  0E00               	movlw	0
  1174  006BE6  6E94               	movwf	148,c	;volatile
  1175  006BE8                     
  1176                           ;C:/Users/bruno/OneDrive/Documentos/ProgramacaoEmbarcada/projeto_final.X/main.c: 46:    
      +                           lcdInit();
  1177  006BE8  ECD9  F02A         	call	_lcdInit	;wreg free
  1178  006BEC                     
  1179                           ;C:/Users/bruno/OneDrive/Documentos/ProgramacaoEmbarcada/projeto_final.X/main.c: 47:    
      +                           kpInit();
  1180  006BEC  EC11  F029         	call	_kpInit	;wreg free
  1181  006BF0                     l4222:
  1182                           
  1183                           ;C:/Users/bruno/OneDrive/Documentos/ProgramacaoEmbarcada/projeto_final.X/main.c: 50:    
      +                               lcdCommand(0x01);
  1184  006BF0  0E01               	movlw	1
  1185  006BF2  EC15  F02B         	call	_lcdCommand
  1186  006BF6                     
  1187                           ;C:/Users/bruno/OneDrive/Documentos/ProgramacaoEmbarcada/projeto_final.X/main.c: 53:    
      +                               lcdCommand(0x80);
  1188  006BF6  0E80               	movlw	128
  1189  006BF8  EC15  F02B         	call	_lcdCommand
  1190  006BFC                     
  1191                           ;C:/Users/bruno/OneDrive/Documentos/ProgramacaoEmbarcada/projeto_final.X/main.c: 55:    
      +                               for (i = 0; i < 16; i++) {
  1192  006BFC  0E00               	movlw	0
  1193  006BFE  6E42               	movwf	(_i+1)^0,c
  1194  006C00  0E00               	movlw	0
  1195  006C02  6E41               	movwf	_i^0,c
  1196  006C04                     l4232:
  1197                           
  1198                           ;C:/Users/bruno/OneDrive/Documentos/ProgramacaoEmbarcada/projeto_final.X/main.c: 56:    
      +                                   lcdData(' ');
  1199  006C04  0E20               	movlw	32
  1200  006C06  EC77  F029         	call	_lcdData
  1201  006C0A                     
  1202                           ;C:/Users/bruno/OneDrive/Documentos/ProgramacaoEmbarcada/projeto_final.X/main.c: 57:    
      +                               }
  1203  006C0A  4A41               	infsnz	_i^0,f,c
  1204  006C0C  2A42               	incf	(_i+1)^0,f,c
  1205  006C0E  5042               	movf	(_i+1)^0,w,c
  1206  006C10  E109               	bnz	u3770
  1207  006C12  0E10               	movlw	16
  1208  006C14  5C41               	subwf	_i^0,w,c
  1209  006C16  A0D8               	btfss	status,0,c
  1210  006C18  EF10  F036         	goto	u3771
  1211  006C1C  EF12  F036         	goto	u3770
  1212  006C20                     u3771:
  1213  006C20  EF02  F036         	goto	l4232
  1214  006C24                     u3770:
  1215  006C24                     
  1216                           ;C:/Users/bruno/OneDrive/Documentos/ProgramacaoEmbarcada/projeto_final.X/main.c: 59:    
      +                               rtc_r();
  1217  006C24  EC4A  F02D         	call	_rtc_r	;wreg free
  1218  006C28                     
  1219                           ;C:/Users/bruno/OneDrive/Documentos/ProgramacaoEmbarcada/projeto_final.X/main.c: 60:    
      +                               for (i = 0; i < 16; i++) {
  1220  006C28  0E00               	movlw	0
  1221  006C2A  6E42               	movwf	(_i+1)^0,c
  1222  006C2C  0E00               	movlw	0
  1223  006C2E  6E41               	movwf	_i^0,c
  1224  006C30                     l4246:
  1225                           
  1226                           ;C:/Users/bruno/OneDrive/Documentos/ProgramacaoEmbarcada/projeto_final.X/main.c: 61:    
      +                                   hor_relo[i] = time[i];
  1227  006C30  0E11               	movlw	low _time
  1228  006C32  2441               	addwf	_i^0,w,c
  1229  006C34  6ED9               	movwf	fsr2l,c
  1230  006C36  0E00               	movlw	high _time
  1231  006C38  2042               	addwfc	(_i+1)^0,w,c
  1232  006C3A  6EDA               	movwf	fsr2h,c
  1233  006C3C  0E01               	movlw	low _hor_relo
  1234  006C3E  2441               	addwf	_i^0,w,c
  1235  006C40  6EE1               	movwf	fsr1l,c
  1236  006C42  0E00               	movlw	high _hor_relo
  1237  006C44  2042               	addwfc	(_i+1)^0,w,c
  1238  006C46  6EE2               	movwf	fsr1h,c
  1239  006C48  CFDF FFE7          	movff	indf2,indf1
  1240  006C4C                     
  1241                           ;C:/Users/bruno/OneDrive/Documentos/ProgramacaoEmbarcada/projeto_final.X/main.c: 62:    
      +                                   lcdData(hor_relo[i]);
  1242  006C4C  0E01               	movlw	low _hor_relo
  1243  006C4E  2441               	addwf	_i^0,w,c
  1244  006C50  6ED9               	movwf	fsr2l,c
  1245  006C52  0E00               	movlw	high _hor_relo
  1246  006C54  2042               	addwfc	(_i+1)^0,w,c
  1247  006C56  6EDA               	movwf	fsr2h,c
  1248  006C58  50DF               	movf	indf2,w,c
  1249  006C5A  EC77  F029         	call	_lcdData
  1250  006C5E                     
  1251                           ;C:/Users/bruno/OneDrive/Documentos/ProgramacaoEmbarcada/projeto_final.X/main.c: 63:    
      +                               }
  1252  006C5E  4A41               	infsnz	_i^0,f,c
  1253  006C60  2A42               	incf	(_i+1)^0,f,c
  1254  006C62  5042               	movf	(_i+1)^0,w,c
  1255  006C64  E109               	bnz	u3780
  1256  006C66  0E10               	movlw	16
  1257  006C68  5C41               	subwf	_i^0,w,c
  1258  006C6A  A0D8               	btfss	status,0,c
  1259  006C6C  EF3A  F036         	goto	u3781
  1260  006C70  EF3C  F036         	goto	u3780
  1261  006C74                     u3781:
  1262  006C74  EF18  F036         	goto	l4246
  1263  006C78                     u3780:
  1264  006C78                     
  1265                           ;C:/Users/bruno/OneDrive/Documentos/ProgramacaoEmbarcada/projeto_final.X/main.c: 65:    
      +                               h_rel = ((hor_relo[0] - 48)*10) + (hor_relo[1] - 48);
  1266  006C78  5001               	movf	_hor_relo^0,w,c
  1267  006C7A  0D0A               	mullw	10
  1268  006C7C  CFF3 F062          	movff	prodl,??_main
  1269  006C80  CFF4 F063          	movff	prodh,??_main+1
  1270  006C84  5002               	movf	(_hor_relo+1)^0,w,c
  1271  006C86  2662               	addwf	??_main^0,f,c
  1272  006C88  0E00               	movlw	0
  1273  006C8A  2263               	addwfc	(??_main+1)^0,f,c
  1274  006C8C  0EF0               	movlw	240
  1275  006C8E  2462               	addwf	??_main^0,w,c
  1276  006C90  6E3D               	movwf	_h_rel^0,c
  1277  006C92  0EFD               	movlw	253
  1278  006C94  2063               	addwfc	(??_main+1)^0,w,c
  1279  006C96  6E3E               	movwf	(_h_rel+1)^0,c
  1280                           
  1281                           ;C:/Users/bruno/OneDrive/Documentos/ProgramacaoEmbarcada/projeto_final.X/main.c: 66:    
      +                               m_rel = ((hor_relo[3] - 48)*10) + (hor_relo[4] - 48);
  1282  006C98  5004               	movf	(_hor_relo+3)^0,w,c
  1283  006C9A  0D0A               	mullw	10
  1284  006C9C  CFF3 F062          	movff	prodl,??_main
  1285  006CA0  CFF4 F063          	movff	prodh,??_main+1
  1286  006CA4  5005               	movf	(_hor_relo+4)^0,w,c
  1287  006CA6  2662               	addwf	??_main^0,f,c
  1288  006CA8  0E00               	movlw	0
  1289  006CAA  2263               	addwfc	(??_main+1)^0,f,c
  1290  006CAC  0EF0               	movlw	240
  1291  006CAE  2462               	addwf	??_main^0,w,c
  1292  006CB0  6E3B               	movwf	_m_rel^0,c
  1293  006CB2  0EFD               	movlw	253
  1294  006CB4  2063               	addwfc	(??_main+1)^0,w,c
  1295  006CB6  6E3C               	movwf	(_m_rel+1)^0,c
  1296                           
  1297                           ;C:/Users/bruno/OneDrive/Documentos/ProgramacaoEmbarcada/projeto_final.X/main.c: 67:    
      +                               s_rel = ((hor_relo[6] - 48)*10) + (hor_relo[7] - 48);
  1298  006CB8  5007               	movf	(_hor_relo+6)^0,w,c
  1299  006CBA  0D0A               	mullw	10
  1300  006CBC  CFF3 F062          	movff	prodl,??_main
  1301  006CC0  CFF4 F063          	movff	prodh,??_main+1
  1302  006CC4  5008               	movf	(_hor_relo+7)^0,w,c
  1303  006CC6  2662               	addwf	??_main^0,f,c
  1304  006CC8  0E00               	movlw	0
  1305  006CCA  2263               	addwfc	(??_main+1)^0,f,c
  1306  006CCC  0EF0               	movlw	240
  1307  006CCE  2462               	addwf	??_main^0,w,c
  1308  006CD0  6E39               	movwf	_s_rel^0,c
  1309  006CD2  0EFD               	movlw	253
  1310  006CD4  2063               	addwfc	(??_main+1)^0,w,c
  1311  006CD6  6E3A               	movwf	(_s_rel+1)^0,c
  1312  006CD8                     
  1313                           ;C:/Users/bruno/OneDrive/Documentos/ProgramacaoEmbarcada/projeto_final.X/main.c: 70:    
      +                               lcdCommand(0x90);
  1314  006CD8  0E90               	movlw	144
  1315  006CDA  EC15  F02B         	call	_lcdCommand
  1316  006CDE                     
  1317                           ;C:/Users/bruno/OneDrive/Documentos/ProgramacaoEmbarcada/projeto_final.X/main.c: 71:    
      +                               for (i = 0; i < 16; i++) {
  1318  006CDE  0E00               	movlw	0
  1319  006CE0  6E42               	movwf	(_i+1)^0,c
  1320  006CE2  0E00               	movlw	0
  1321  006CE4  6E41               	movwf	_i^0,c
  1322  006CE6                     l4264:
  1323                           
  1324                           ;C:/Users/bruno/OneDrive/Documentos/ProgramacaoEmbarcada/projeto_final.X/main.c: 72:    
      +                                   lcdData(msg_principal[0][i]);
  1325  006CE6  0EB0               	movlw	low _msg_principal
  1326  006CE8  2441               	addwf	_i^0,w,c
  1327  006CEA  6ED9               	movwf	fsr2l,c
  1328  006CEC  0E01               	movlw	high _msg_principal
  1329  006CEE  2042               	addwfc	(_i+1)^0,w,c
  1330  006CF0  6EDA               	movwf	fsr2h,c
  1331  006CF2  50DF               	movf	indf2,w,c
  1332  006CF4  EC77  F029         	call	_lcdData
  1333  006CF8                     
  1334                           ;C:/Users/bruno/OneDrive/Documentos/ProgramacaoEmbarcada/projeto_final.X/main.c: 73:    
      +                               }
  1335  006CF8  4A41               	infsnz	_i^0,f,c
  1336  006CFA  2A42               	incf	(_i+1)^0,f,c
  1337  006CFC  5042               	movf	(_i+1)^0,w,c
  1338  006CFE  E109               	bnz	u3790
  1339  006D00  0E10               	movlw	16
  1340  006D02  5C41               	subwf	_i^0,w,c
  1341  006D04  A0D8               	btfss	status,0,c
  1342  006D06  EF87  F036         	goto	u3791
  1343  006D0A  EF89  F036         	goto	u3790
  1344  006D0E                     u3791:
  1345  006D0E  EF73  F036         	goto	l4264
  1346  006D12                     u3790:
  1347  006D12                     
  1348                           ;C:/Users/bruno/OneDrive/Documentos/ProgramacaoEmbarcada/projeto_final.X/main.c: 77:    
      +                               lcdCommand(0xD0);
  1349  006D12  0ED0               	movlw	208
  1350  006D14  EC15  F02B         	call	_lcdCommand
  1351  006D18                     
  1352                           ;C:/Users/bruno/OneDrive/Documentos/ProgramacaoEmbarcada/projeto_final.X/main.c: 78:    
      +                               for (i = 0; i < 16; i++) {
  1353  006D18  0E00               	movlw	0
  1354  006D1A  6E42               	movwf	(_i+1)^0,c
  1355  006D1C  0E00               	movlw	0
  1356  006D1E  6E41               	movwf	_i^0,c
  1357  006D20                     l4278:
  1358                           
  1359                           ;C:/Users/bruno/OneDrive/Documentos/ProgramacaoEmbarcada/projeto_final.X/main.c: 79:    
      +                                   lcdData(msg_principal[1][i]);
  1360  006D20  0EC0               	movlw	low (_msg_principal+16)
  1361  006D22  2441               	addwf	_i^0,w,c
  1362  006D24  6ED9               	movwf	fsr2l,c
  1363  006D26  0E01               	movlw	high (_msg_principal+16)
  1364  006D28  2042               	addwfc	(_i+1)^0,w,c
  1365  006D2A  6EDA               	movwf	fsr2h,c
  1366  006D2C  50DF               	movf	indf2,w,c
  1367  006D2E  EC77  F029         	call	_lcdData
  1368  006D32                     
  1369                           ;C:/Users/bruno/OneDrive/Documentos/ProgramacaoEmbarcada/projeto_final.X/main.c: 80:    
      +                               }
  1370  006D32  4A41               	infsnz	_i^0,f,c
  1371  006D34  2A42               	incf	(_i+1)^0,f,c
  1372  006D36  5042               	movf	(_i+1)^0,w,c
  1373  006D38  E109               	bnz	u3800
  1374  006D3A  0E10               	movlw	16
  1375  006D3C  5C41               	subwf	_i^0,w,c
  1376  006D3E  A0D8               	btfss	status,0,c
  1377  006D40  EFA4  F036         	goto	u3801
  1378  006D44  EFA6  F036         	goto	u3800
  1379  006D48                     u3801:
  1380  006D48  EF90  F036         	goto	l4278
  1381  006D4C                     u3800:
  1382  006D4C                     l4284:
  1383                           
  1384                           ;C:/Users/bruno/OneDrive/Documentos/ProgramacaoEmbarcada/projeto_final.X/main.c: 86:    
      +                                   cont++;
  1385  006D4C  0E01               	movlw	1
  1386  006D4E  262D               	addwf	_cont^0,f,c
  1387  006D50  0E00               	movlw	0
  1388  006D52  222E               	addwfc	(_cont+1)^0,f,c
  1389  006D54  222F               	addwfc	(_cont+2)^0,f,c
  1390  006D56  2230               	addwfc	(_cont+3)^0,f,c
  1391  006D58                     
  1392                           ;C:/Users/bruno/OneDrive/Documentos/ProgramacaoEmbarcada/projeto_final.X/main.c: 88:    
      +                                   if ((cont % 180) == 0) {
  1393  006D58  C02D  F04A         	movff	_cont,___llmod@dividend
  1394  006D5C  C02E  F04B         	movff	_cont+1,___llmod@dividend+1
  1395  006D60  C02F  F04C         	movff	_cont+2,___llmod@dividend+2
  1396  006D64  C030  F04D         	movff	_cont+3,___llmod@dividend+3
  1397  006D68  0EB4               	movlw	180
  1398  006D6A  6E4E               	movwf	___llmod@divisor^0,c
  1399  006D6C  0E00               	movlw	0
  1400  006D6E  6E4F               	movwf	(___llmod@divisor+1)^0,c
  1401  006D70  0E00               	movlw	0
  1402  006D72  6E50               	movwf	(___llmod@divisor+2)^0,c
  1403  006D74  0E00               	movlw	0
  1404  006D76  6E51               	movwf	(___llmod@divisor+3)^0,c
  1405  006D78  EC95  F02B         	call	___llmod	;wreg free
  1406  006D7C  504A               	movf	?___llmod^0,w,c
  1407  006D7E  104B               	iorwf	(?___llmod+1)^0,w,c
  1408  006D80  104C               	iorwf	(?___llmod+2)^0,w,c
  1409  006D82  104D               	iorwf	(?___llmod+3)^0,w,c
  1410  006D84  A4D8               	btfss	status,2,c
  1411  006D86  EFC7  F036         	goto	u3811
  1412  006D8A  EFC9  F036         	goto	u3810
  1413  006D8E                     u3811:
  1414  006D8E  EFCB  F036         	goto	l4290
  1415  006D92                     u3810:
  1416  006D92                     
  1417                           ;C:/Users/bruno/OneDrive/Documentos/ProgramacaoEmbarcada/projeto_final.X/main.c: 89:    
      +                                       s_rel++;
  1418  006D92  4A39               	infsnz	_s_rel^0,f,c
  1419  006D94  2A3A               	incf	(_s_rel+1)^0,f,c
  1420  006D96                     l4290:
  1421                           
  1422                           ;C:/Users/bruno/OneDrive/Documentos/ProgramacaoEmbarcada/projeto_final.X/main.c: 92:    
      +                                   if (s_rel >= 60) {
  1423  006D96  BE3A               	btfsc	(_s_rel+1)^0,7,c
  1424  006D98  EFD7  F036         	goto	u3821
  1425  006D9C  503A               	movf	(_s_rel+1)^0,w,c
  1426  006D9E  E109               	bnz	u3820
  1427  006DA0  0E3C               	movlw	60
  1428  006DA2  5C39               	subwf	_s_rel^0,w,c
  1429  006DA4  A0D8               	btfss	status,0,c
  1430  006DA6  EFD7  F036         	goto	u3821
  1431  006DAA  EFD9  F036         	goto	u3820
  1432  006DAE                     u3821:
  1433  006DAE  EF05  F037         	goto	l4306
  1434  006DB2                     u3820:
  1435  006DB2                     
  1436                           ;C:/Users/bruno/OneDrive/Documentos/ProgramacaoEmbarcada/projeto_final.X/main.c: 93:    
      +                                       s_rel = 0;
  1437  006DB2  0E00               	movlw	0
  1438  006DB4  6E3A               	movwf	(_s_rel+1)^0,c
  1439  006DB6  0E00               	movlw	0
  1440  006DB8  6E39               	movwf	_s_rel^0,c
  1441  006DBA                     
  1442                           ;C:/Users/bruno/OneDrive/Documentos/ProgramacaoEmbarcada/projeto_final.X/main.c: 94:    
      +                                       m_rel++;
  1443  006DBA  4A3B               	infsnz	_m_rel^0,f,c
  1444  006DBC  2A3C               	incf	(_m_rel+1)^0,f,c
  1445  006DBE                     
  1446                           ;C:/Users/bruno/OneDrive/Documentos/ProgramacaoEmbarcada/projeto_final.X/main.c: 95:    
      +                                       if (m_rel >= 60) {
  1447  006DBE  BE3C               	btfsc	(_m_rel+1)^0,7,c
  1448  006DC0  EFEB  F036         	goto	u3831
  1449  006DC4  503C               	movf	(_m_rel+1)^0,w,c
  1450  006DC6  E109               	bnz	u3830
  1451  006DC8  0E3C               	movlw	60
  1452  006DCA  5C3B               	subwf	_m_rel^0,w,c
  1453  006DCC  A0D8               	btfss	status,0,c
  1454  006DCE  EFEB  F036         	goto	u3831
  1455  006DD2  EFED  F036         	goto	u3830
  1456  006DD6                     u3831:
  1457  006DD6  EF05  F037         	goto	l4306
  1458  006DDA                     u3830:
  1459  006DDA                     
  1460                           ;C:/Users/bruno/OneDrive/Documentos/ProgramacaoEmbarcada/projeto_final.X/main.c: 96:    
      +                                           m_rel = 0;
  1461  006DDA  0E00               	movlw	0
  1462  006DDC  6E3C               	movwf	(_m_rel+1)^0,c
  1463  006DDE  0E00               	movlw	0
  1464  006DE0  6E3B               	movwf	_m_rel^0,c
  1465  006DE2                     
  1466                           ;C:/Users/bruno/OneDrive/Documentos/ProgramacaoEmbarcada/projeto_final.X/main.c: 97:    
      +                                           h_rel++;
  1467  006DE2  4A3D               	infsnz	_h_rel^0,f,c
  1468  006DE4  2A3E               	incf	(_h_rel+1)^0,f,c
  1469  006DE6                     
  1470                           ;C:/Users/bruno/OneDrive/Documentos/ProgramacaoEmbarcada/projeto_final.X/main.c: 98:    
      +                                           if (h_rel >= 24) {
  1471  006DE6  BE3E               	btfsc	(_h_rel+1)^0,7,c
  1472  006DE8  EFFF  F036         	goto	u3841
  1473  006DEC  503E               	movf	(_h_rel+1)^0,w,c
  1474  006DEE  E109               	bnz	u3840
  1475  006DF0  0E18               	movlw	24
  1476  006DF2  5C3D               	subwf	_h_rel^0,w,c
  1477  006DF4  A0D8               	btfss	status,0,c
  1478  006DF6  EFFF  F036         	goto	u3841
  1479  006DFA  EF01  F037         	goto	u3840
  1480  006DFE                     u3841:
  1481  006DFE  EF05  F037         	goto	l4306
  1482  006E02                     u3840:
  1483  006E02                     
  1484                           ;C:/Users/bruno/OneDrive/Documentos/ProgramacaoEmbarcada/projeto_final.X/main.c: 99:    
      +                                               h_rel = 0;
  1485  006E02  0E00               	movlw	0
  1486  006E04  6E3E               	movwf	(_h_rel+1)^0,c
  1487  006E06  0E00               	movlw	0
  1488  006E08  6E3D               	movwf	_h_rel^0,c
  1489  006E0A                     l4306:
  1490                           
  1491                           ;C:/Users/bruno/OneDrive/Documentos/ProgramacaoEmbarcada/projeto_final.X/main.c: 104:   
      +                                    hor_relo[0] = (h_rel / 10) + 48;
  1492  006E0A  C03D  F04A         	movff	_h_rel,___awdiv@dividend
  1493  006E0E  C03E  F04B         	movff	_h_rel+1,___awdiv@dividend+1
  1494  006E12  0E00               	movlw	0
  1495  006E14  6E4D               	movwf	(___awdiv@divisor+1)^0,c
  1496  006E16  0E0A               	movlw	10
  1497  006E18  6E4C               	movwf	___awdiv@divisor^0,c
  1498  006E1A  EC80  F02C         	call	___awdiv	;wreg free
  1499  006E1E  504A               	movf	?___awdiv^0,w,c
  1500  006E20  0F30               	addlw	48
  1501  006E22  6E01               	movwf	_hor_relo^0,c
  1502  006E24                     
  1503                           ;C:/Users/bruno/OneDrive/Documentos/ProgramacaoEmbarcada/projeto_final.X/main.c: 105:   
      +                                    hor_relo[1] = (h_rel % 10) + 48;
  1504  006E24  C03D  F04A         	movff	_h_rel,___awmod@dividend
  1505  006E28  C03E  F04B         	movff	_h_rel+1,___awmod@dividend+1
  1506  006E2C  0E00               	movlw	0
  1507  006E2E  6E4D               	movwf	(___awmod@divisor+1)^0,c
  1508  006E30  0E0A               	movlw	10
  1509  006E32  6E4C               	movwf	___awmod@divisor^0,c
  1510  006E34  EC28  F02C         	call	___awmod	;wreg free
  1511  006E38  504A               	movf	?___awmod^0,w,c
  1512  006E3A  0F30               	addlw	48
  1513  006E3C  6E02               	movwf	(_hor_relo+1)^0,c
  1514  006E3E                     
  1515                           ;C:/Users/bruno/OneDrive/Documentos/ProgramacaoEmbarcada/projeto_final.X/main.c: 106:   
      +                                    hor_relo[3] = (m_rel / 10) + 48;
  1516  006E3E  C03B  F04A         	movff	_m_rel,___awdiv@dividend
  1517  006E42  C03C  F04B         	movff	_m_rel+1,___awdiv@dividend+1
  1518  006E46  0E00               	movlw	0
  1519  006E48  6E4D               	movwf	(___awdiv@divisor+1)^0,c
  1520  006E4A  0E0A               	movlw	10
  1521  006E4C  6E4C               	movwf	___awdiv@divisor^0,c
  1522  006E4E  EC80  F02C         	call	___awdiv	;wreg free
  1523  006E52  504A               	movf	?___awdiv^0,w,c
  1524  006E54  0F30               	addlw	48
  1525  006E56  6E04               	movwf	(_hor_relo+3)^0,c
  1526  006E58                     
  1527                           ;C:/Users/bruno/OneDrive/Documentos/ProgramacaoEmbarcada/projeto_final.X/main.c: 107:   
      +                                    hor_relo[4] = (m_rel % 10) + 48;
  1528  006E58  C03B  F04A         	movff	_m_rel,___awmod@dividend
  1529  006E5C  C03C  F04B         	movff	_m_rel+1,___awmod@dividend+1
  1530  006E60  0E00               	movlw	0
  1531  006E62  6E4D               	movwf	(___awmod@divisor+1)^0,c
  1532  006E64  0E0A               	movlw	10
  1533  006E66  6E4C               	movwf	___awmod@divisor^0,c
  1534  006E68  EC28  F02C         	call	___awmod	;wreg free
  1535  006E6C  504A               	movf	?___awmod^0,w,c
  1536  006E6E  0F30               	addlw	48
  1537  006E70  6E05               	movwf	(_hor_relo+4)^0,c
  1538  006E72                     
  1539                           ;C:/Users/bruno/OneDrive/Documentos/ProgramacaoEmbarcada/projeto_final.X/main.c: 108:   
      +                                    hor_relo[6] = (s_rel / 10) + 48;
  1540  006E72  C039  F04A         	movff	_s_rel,___awdiv@dividend
  1541  006E76  C03A  F04B         	movff	_s_rel+1,___awdiv@dividend+1
  1542  006E7A  0E00               	movlw	0
  1543  006E7C  6E4D               	movwf	(___awdiv@divisor+1)^0,c
  1544  006E7E  0E0A               	movlw	10
  1545  006E80  6E4C               	movwf	___awdiv@divisor^0,c
  1546  006E82  EC80  F02C         	call	___awdiv	;wreg free
  1547  006E86  504A               	movf	?___awdiv^0,w,c
  1548  006E88  0F30               	addlw	48
  1549  006E8A  6E07               	movwf	(_hor_relo+6)^0,c
  1550  006E8C                     
  1551                           ;C:/Users/bruno/OneDrive/Documentos/ProgramacaoEmbarcada/projeto_final.X/main.c: 109:   
      +                                    hor_relo[7] = (s_rel % 10) + 48;
  1552  006E8C  C039  F04A         	movff	_s_rel,___awmod@dividend
  1553  006E90  C03A  F04B         	movff	_s_rel+1,___awmod@dividend+1
  1554  006E94  0E00               	movlw	0
  1555  006E96  6E4D               	movwf	(___awmod@divisor+1)^0,c
  1556  006E98  0E0A               	movlw	10
  1557  006E9A  6E4C               	movwf	___awmod@divisor^0,c
  1558  006E9C  EC28  F02C         	call	___awmod	;wreg free
  1559  006EA0  504A               	movf	?___awmod^0,w,c
  1560  006EA2  0F30               	addlw	48
  1561  006EA4  6E08               	movwf	(_hor_relo+7)^0,c
  1562  006EA6                     
  1563                           ;C:/Users/bruno/OneDrive/Documentos/ProgramacaoEmbarcada/projeto_final.X/main.c: 111:   
      +                                    lcdCommand(0x80);
  1564  006EA6  0E80               	movlw	128
  1565  006EA8  EC15  F02B         	call	_lcdCommand
  1566  006EAC                     
  1567                           ;C:/Users/bruno/OneDrive/Documentos/ProgramacaoEmbarcada/projeto_final.X/main.c: 112:   
      +                                    for (i = 0; i < 8; i++) {
  1568  006EAC  0E00               	movlw	0
  1569  006EAE  6E42               	movwf	(_i+1)^0,c
  1570  006EB0  0E00               	movlw	0
  1571  006EB2  6E41               	movwf	_i^0,c
  1572  006EB4                     l4326:
  1573                           
  1574                           ;C:/Users/bruno/OneDrive/Documentos/ProgramacaoEmbarcada/projeto_final.X/main.c: 113:   
      +                                        lcdData(hor_relo[i]);
  1575  006EB4  0E01               	movlw	low _hor_relo
  1576  006EB6  2441               	addwf	_i^0,w,c
  1577  006EB8  6ED9               	movwf	fsr2l,c
  1578  006EBA  0E00               	movlw	high _hor_relo
  1579  006EBC  2042               	addwfc	(_i+1)^0,w,c
  1580  006EBE  6EDA               	movwf	fsr2h,c
  1581  006EC0  50DF               	movf	indf2,w,c
  1582  006EC2  EC77  F029         	call	_lcdData
  1583  006EC6                     
  1584                           ;C:/Users/bruno/OneDrive/Documentos/ProgramacaoEmbarcada/projeto_final.X/main.c: 114:   
      +                                    }
  1585  006EC6  4A41               	infsnz	_i^0,f,c
  1586  006EC8  2A42               	incf	(_i+1)^0,f,c
  1587  006ECA  5042               	movf	(_i+1)^0,w,c
  1588  006ECC  E109               	bnz	u3850
  1589  006ECE  0E08               	movlw	8
  1590  006ED0  5C41               	subwf	_i^0,w,c
  1591  006ED2  A0D8               	btfss	status,0,c
  1592  006ED4  EF6E  F037         	goto	u3851
  1593  006ED8  EF70  F037         	goto	u3850
  1594  006EDC                     u3851:
  1595  006EDC  EF5A  F037         	goto	l4326
  1596  006EE0                     u3850:
  1597  006EE0                     
  1598                           ;C:/Users/bruno/OneDrive/Documentos/ProgramacaoEmbarcada/projeto_final.X/main.c: 117:   
      +                                    kpDebounce();
  1599  006EE0  EC2E  F02E         	call	_kpDebounce	;wreg free
  1600  006EE4                     
  1601                           ;C:/Users/bruno/OneDrive/Documentos/ProgramacaoEmbarcada/projeto_final.X/main.c: 118:   
      +                                    if (kpRead() != tecla) {
  1602  006EE4  EC16  F029         	call	_kpRead	;wreg free
  1603  006EE8  5076               	movf	_tecla^0,w,c
  1604  006EEA  184A               	xorwf	?_kpRead^0,w,c
  1605  006EEC  E109               	bnz	u3860
  1606  006EEE  5077               	movf	(_tecla+1)^0,w,c
  1607  006EF0  184B               	xorwf	(?_kpRead+1)^0,w,c
  1608  006EF2  B4D8               	btfsc	status,2,c
  1609  006EF4  EF7E  F037         	goto	u3861
  1610  006EF8  EF80  F037         	goto	u3860
  1611  006EFC                     u3861:
  1612  006EFC  EF88  F037         	goto	l4338
  1613  006F00                     u3860:
  1614  006F00                     
  1615                           ;C:/Users/bruno/OneDrive/Documentos/ProgramacaoEmbarcada/projeto_final.X/main.c: 119:   
      +                                        tecla = kpRead();
  1616  006F00  EC16  F029         	call	_kpRead	;wreg free
  1617  006F04  C04A  F076         	movff	?_kpRead,_tecla
  1618  006F08  C04B  F077         	movff	?_kpRead+1,_tecla+1
  1619                           
  1620                           ;C:/Users/bruno/OneDrive/Documentos/ProgramacaoEmbarcada/projeto_final.X/main.c: 120:   
      +                                        break;
  1621  006F0C  EFC0  F037         	goto	l330
  1622  006F10                     l4338:
  1623                           
  1624                           ;C:/Users/bruno/OneDrive/Documentos/ProgramacaoEmbarcada/projeto_final.X/main.c: 124:   
      +                                    for (i = 0; i < 8; i++) {
  1625  006F10  0E00               	movlw	0
  1626  006F12  6E42               	movwf	(_i+1)^0,c
  1627  006F14  0E00               	movlw	0
  1628  006F16  6E41               	movwf	_i^0,c
  1629  006F18                     l4344:
  1630                           
  1631                           ;C:/Users/bruno/OneDrive/Documentos/ProgramacaoEmbarcada/projeto_final.X/main.c: 125:   
      +                                        if (hor_alarm[i] != hor_relo[i]) {
  1632  006F18  0E01               	movlw	low _hor_relo
  1633  006F1A  2441               	addwf	_i^0,w,c
  1634  006F1C  6ED9               	movwf	fsr2l,c
  1635  006F1E  0E00               	movlw	high _hor_relo
  1636  006F20  2042               	addwfc	(_i+1)^0,w,c
  1637  006F22  6EDA               	movwf	fsr2h,c
  1638  006F24  0E64               	movlw	low _hor_alarm
  1639  006F26  2441               	addwf	_i^0,w,c
  1640  006F28  6EE1               	movwf	fsr1l,c
  1641  006F2A  0E00               	movlw	high _hor_alarm
  1642  006F2C  2042               	addwfc	(_i+1)^0,w,c
  1643  006F2E  6EE2               	movwf	fsr1h,c
  1644  006F30  50DE               	movf	postinc2,w,c
  1645  006F32  18E6               	xorwf	postinc1,w,c
  1646  006F34  B4D8               	btfsc	status,2,c
  1647  006F36  EF9F  F037         	goto	u3871
  1648  006F3A  EFA1  F037         	goto	u3870
  1649  006F3E                     u3871:
  1650  006F3E  EFA3  F037         	goto	l4348
  1651  006F42                     u3870:
  1652  006F42  EFA6  F036         	goto	l4284
  1653  006F46                     l4348:
  1654                           
  1655                           ;C:/Users/bruno/OneDrive/Documentos/ProgramacaoEmbarcada/projeto_final.X/main.c: 128:   
      +                                        if (i == 7) {
  1656  006F46  0E07               	movlw	7
  1657  006F48  1841               	xorwf	_i^0,w,c
  1658  006F4A  1042               	iorwf	(_i+1)^0,w,c
  1659  006F4C  A4D8               	btfss	status,2,c
  1660  006F4E  EFAB  F037         	goto	u3881
  1661  006F52  EFAD  F037         	goto	u3880
  1662  006F56                     u3881:
  1663  006F56  EFB1  F037         	goto	l4354
  1664  006F5A                     u3880:
  1665  006F5A                     
  1666                           ;C:/Users/bruno/OneDrive/Documentos/ProgramacaoEmbarcada/projeto_final.X/main.c: 129:   
      +                                            s_rel++;
  1667  006F5A  4A39               	infsnz	_s_rel^0,f,c
  1668  006F5C  2A3A               	incf	(_s_rel+1)^0,f,c
  1669  006F5E                     
  1670                           ;C:/Users/bruno/OneDrive/Documentos/ProgramacaoEmbarcada/projeto_final.X/main.c: 130:   
      +                                            tocarAlarme();
  1671  006F5E  EC39  F031         	call	_tocarAlarme	;wreg free
  1672  006F62                     l4354:
  1673                           
  1674                           ;C:/Users/bruno/OneDrive/Documentos/ProgramacaoEmbarcada/projeto_final.X/main.c: 132:   
      +                                    }
  1675  006F62  4A41               	infsnz	_i^0,f,c
  1676  006F64  2A42               	incf	(_i+1)^0,f,c
  1677  006F66  5042               	movf	(_i+1)^0,w,c
  1678  006F68  E109               	bnz	u3890
  1679  006F6A  0E08               	movlw	8
  1680  006F6C  5C41               	subwf	_i^0,w,c
  1681  006F6E  A0D8               	btfss	status,0,c
  1682  006F70  EFBC  F037         	goto	u3891
  1683  006F74  EFBE  F037         	goto	u3890
  1684  006F78                     u3891:
  1685  006F78  EF8C  F037         	goto	l4344
  1686  006F7C                     u3890:
  1687  006F7C  EFA6  F036         	goto	l4284
  1688  006F80                     l330:
  1689                           
  1690                           ;C:/Users/bruno/OneDrive/Documentos/ProgramacaoEmbarcada/projeto_final.X/main.c: 136:   
      +                                if (((tecla) & (1<<(3)))) {
  1691  006F80  A676               	btfss	_tecla^0,3,c
  1692  006F82  EFC5  F037         	goto	u3901
  1693  006F86  EFC7  F037         	goto	u3900
  1694  006F8A                     u3901:
  1695  006F8A  EFEC  F039         	goto	l335
  1696  006F8E                     u3900:
  1697  006F8E                     
  1698                           ;C:/Users/bruno/OneDrive/Documentos/ProgramacaoEmbarcada/projeto_final.X/main.c: 138:   
      +                                    for (i = 0; i < 8; i++) {
  1699  006F8E  0E00               	movlw	0
  1700  006F90  6E42               	movwf	(_i+1)^0,c
  1701  006F92  0E00               	movlw	0
  1702  006F94  6E41               	movwf	_i^0,c
  1703  006F96                     l4364:
  1704                           
  1705                           ;C:/Users/bruno/OneDrive/Documentos/ProgramacaoEmbarcada/projeto_final.X/main.c: 139:   
      +                                        aux_alarm[i] = hor_alarm[i];
  1706  006F96  0E64               	movlw	low _hor_alarm
  1707  006F98  2441               	addwf	_i^0,w,c
  1708  006F9A  6ED9               	movwf	fsr2l,c
  1709  006F9C  0E00               	movlw	high _hor_alarm
  1710  006F9E  2042               	addwfc	(_i+1)^0,w,c
  1711  006FA0  6EDA               	movwf	fsr2h,c
  1712  006FA2  0EF0               	movlw	low _aux_alarm
  1713  006FA4  2441               	addwf	_i^0,w,c
  1714  006FA6  6EE1               	movwf	fsr1l,c
  1715  006FA8  0E00               	movlw	high _aux_alarm
  1716  006FAA  2042               	addwfc	(_i+1)^0,w,c
  1717  006FAC  6EE2               	movwf	fsr1h,c
  1718  006FAE  CFDF FFE7          	movff	indf2,indf1
  1719  006FB2                     
  1720                           ;C:/Users/bruno/OneDrive/Documentos/ProgramacaoEmbarcada/projeto_final.X/main.c: 140:   
      +                                    }
  1721  006FB2  4A41               	infsnz	_i^0,f,c
  1722  006FB4  2A42               	incf	(_i+1)^0,f,c
  1723  006FB6  5042               	movf	(_i+1)^0,w,c
  1724  006FB8  E109               	bnz	u3910
  1725  006FBA  0E08               	movlw	8
  1726  006FBC  5C41               	subwf	_i^0,w,c
  1727  006FBE  A0D8               	btfss	status,0,c
  1728  006FC0  EFE4  F037         	goto	u3911
  1729  006FC4  EFE6  F037         	goto	u3910
  1730  006FC8                     u3911:
  1731  006FC8  EFCB  F037         	goto	l4364
  1732  006FCC                     u3910:
  1733  006FCC                     
  1734                           ;C:/Users/bruno/OneDrive/Documentos/ProgramacaoEmbarcada/projeto_final.X/main.c: 142:   
      +                                    h_alar = ((hor_alarm[0] - 48)*10) + (hor_alarm[1] - 48);
  1735  006FCC  5064               	movf	_hor_alarm^0,w,c
  1736  006FCE  0D0A               	mullw	10
  1737  006FD0  CFF3 F062          	movff	prodl,??_main
  1738  006FD4  CFF4 F063          	movff	prodh,??_main+1
  1739  006FD8  5065               	movf	(_hor_alarm+1)^0,w,c
  1740  006FDA  2662               	addwf	??_main^0,f,c
  1741  006FDC  0E00               	movlw	0
  1742  006FDE  2263               	addwfc	(??_main+1)^0,f,c
  1743  006FE0  0EF0               	movlw	240
  1744  006FE2  2462               	addwf	??_main^0,w,c
  1745  006FE4  6E37               	movwf	_h_alar^0,c
  1746  006FE6  0EFD               	movlw	253
  1747  006FE8  2063               	addwfc	(??_main+1)^0,w,c
  1748  006FEA  6E38               	movwf	(_h_alar+1)^0,c
  1749                           
  1750                           ;C:/Users/bruno/OneDrive/Documentos/ProgramacaoEmbarcada/projeto_final.X/main.c: 143:   
      +                                    m_alar = ((hor_alarm[3] - 48)*10) + (hor_alarm[4] - 48);
  1751  006FEC  5067               	movf	(_hor_alarm+3)^0,w,c
  1752  006FEE  0D0A               	mullw	10
  1753  006FF0  CFF3 F062          	movff	prodl,??_main
  1754  006FF4  CFF4 F063          	movff	prodh,??_main+1
  1755  006FF8  5068               	movf	(_hor_alarm+4)^0,w,c
  1756  006FFA  2662               	addwf	??_main^0,f,c
  1757  006FFC  0E00               	movlw	0
  1758  006FFE  2263               	addwfc	(??_main+1)^0,f,c
  1759  007000  0EF0               	movlw	240
  1760  007002  2462               	addwf	??_main^0,w,c
  1761  007004  6E35               	movwf	_m_alar^0,c
  1762  007006  0EFD               	movlw	253
  1763  007008  2063               	addwfc	(??_main+1)^0,w,c
  1764  00700A  6E36               	movwf	(_m_alar+1)^0,c
  1765                           
  1766                           ;C:/Users/bruno/OneDrive/Documentos/ProgramacaoEmbarcada/projeto_final.X/main.c: 144:   
      +                                    s_alar = ((hor_alarm[6] - 48)*10) + (hor_alarm[7] - 48);
  1767  00700C  506A               	movf	(_hor_alarm+6)^0,w,c
  1768  00700E  0D0A               	mullw	10
  1769  007010  CFF3 F062          	movff	prodl,??_main
  1770  007014  CFF4 F063          	movff	prodh,??_main+1
  1771  007018  506B               	movf	(_hor_alarm+7)^0,w,c
  1772  00701A  2662               	addwf	??_main^0,f,c
  1773  00701C  0E00               	movlw	0
  1774  00701E  2263               	addwfc	(??_main+1)^0,f,c
  1775  007020  0EF0               	movlw	240
  1776  007022  2462               	addwf	??_main^0,w,c
  1777  007024  6E33               	movwf	_s_alar^0,c
  1778  007026  0EFD               	movlw	253
  1779  007028  2063               	addwfc	(??_main+1)^0,w,c
  1780  00702A  6E34               	movwf	(_s_alar+1)^0,c
  1781  00702C                     
  1782                           ;C:/Users/bruno/OneDrive/Documentos/ProgramacaoEmbarcada/projeto_final.X/main.c: 147:   
      +                                    lcdCommand(0x80);
  1783  00702C  0E80               	movlw	128
  1784  00702E  EC15  F02B         	call	_lcdCommand
  1785  007032                     
  1786                           ;C:/Users/bruno/OneDrive/Documentos/ProgramacaoEmbarcada/projeto_final.X/main.c: 148:   
      +                                    for (i = 0; i < 8; i++) {
  1787  007032  0E00               	movlw	0
  1788  007034  6E42               	movwf	(_i+1)^0,c
  1789  007036  0E00               	movlw	0
  1790  007038  6E41               	movwf	_i^0,c
  1791  00703A                     l4380:
  1792                           
  1793                           ;C:/Users/bruno/OneDrive/Documentos/ProgramacaoEmbarcada/projeto_final.X/main.c: 149:   
      +                                        lcdData(hor_alarm[i]);
  1794  00703A  0E64               	movlw	low _hor_alarm
  1795  00703C  2441               	addwf	_i^0,w,c
  1796  00703E  6ED9               	movwf	fsr2l,c
  1797  007040  0E00               	movlw	high _hor_alarm
  1798  007042  2042               	addwfc	(_i+1)^0,w,c
  1799  007044  6EDA               	movwf	fsr2h,c
  1800  007046  50DF               	movf	indf2,w,c
  1801  007048  EC77  F029         	call	_lcdData
  1802  00704C                     
  1803                           ;C:/Users/bruno/OneDrive/Documentos/ProgramacaoEmbarcada/projeto_final.X/main.c: 150:   
      +                                    }
  1804  00704C  4A41               	infsnz	_i^0,f,c
  1805  00704E  2A42               	incf	(_i+1)^0,f,c
  1806  007050  5042               	movf	(_i+1)^0,w,c
  1807  007052  E109               	bnz	u3920
  1808  007054  0E08               	movlw	8
  1809  007056  5C41               	subwf	_i^0,w,c
  1810  007058  A0D8               	btfss	status,0,c
  1811  00705A  EF31  F038         	goto	u3921
  1812  00705E  EF33  F038         	goto	u3920
  1813  007062                     u3921:
  1814  007062  EF1D  F038         	goto	l4380
  1815  007066                     u3920:
  1816  007066                     
  1817                           ;C:/Users/bruno/OneDrive/Documentos/ProgramacaoEmbarcada/projeto_final.X/main.c: 153:   
      +                                    lcdCommand(0xC0);
  1818  007066  0EC0               	movlw	192
  1819  007068  EC15  F02B         	call	_lcdCommand
  1820  00706C                     
  1821                           ;C:/Users/bruno/OneDrive/Documentos/ProgramacaoEmbarcada/projeto_final.X/main.c: 154:   
      +                                    for (i = 0; i < 16; i++) {
  1822  00706C  0E00               	movlw	0
  1823  00706E  6E42               	movwf	(_i+1)^0,c
  1824  007070  0E00               	movlw	0
  1825  007072  6E41               	movwf	_i^0,c
  1826  007074                     l4394:
  1827                           
  1828                           ;C:/Users/bruno/OneDrive/Documentos/ProgramacaoEmbarcada/projeto_final.X/main.c: 155:   
      +                                        lcdData(msg_ajus_alarm[0][i]);
  1829  007074  0E80               	movlw	low _msg_ajus_alarm
  1830  007076  2441               	addwf	_i^0,w,c
  1831  007078  6ED9               	movwf	fsr2l,c
  1832  00707A  0E01               	movlw	high _msg_ajus_alarm
  1833  00707C  2042               	addwfc	(_i+1)^0,w,c
  1834  00707E  6EDA               	movwf	fsr2h,c
  1835  007080  50DF               	movf	indf2,w,c
  1836  007082  EC77  F029         	call	_lcdData
  1837  007086                     
  1838                           ;C:/Users/bruno/OneDrive/Documentos/ProgramacaoEmbarcada/projeto_final.X/main.c: 156:   
      +                                    }
  1839  007086  4A41               	infsnz	_i^0,f,c
  1840  007088  2A42               	incf	(_i+1)^0,f,c
  1841  00708A  5042               	movf	(_i+1)^0,w,c
  1842  00708C  E109               	bnz	u3930
  1843  00708E  0E10               	movlw	16
  1844  007090  5C41               	subwf	_i^0,w,c
  1845  007092  A0D8               	btfss	status,0,c
  1846  007094  EF4E  F038         	goto	u3931
  1847  007098  EF50  F038         	goto	u3930
  1848  00709C                     u3931:
  1849  00709C  EF3A  F038         	goto	l4394
  1850  0070A0                     u3930:
  1851  0070A0                     
  1852                           ;C:/Users/bruno/OneDrive/Documentos/ProgramacaoEmbarcada/projeto_final.X/main.c: 159:   
      +                                    lcdCommand(0x90);
  1853  0070A0  0E90               	movlw	144
  1854  0070A2  EC15  F02B         	call	_lcdCommand
  1855  0070A6                     
  1856                           ;C:/Users/bruno/OneDrive/Documentos/ProgramacaoEmbarcada/projeto_final.X/main.c: 160:   
      +                                    for (i = 0; i < 16; i++) {
  1857  0070A6  0E00               	movlw	0
  1858  0070A8  6E42               	movwf	(_i+1)^0,c
  1859  0070AA  0E00               	movlw	0
  1860  0070AC  6E41               	movwf	_i^0,c
  1861  0070AE                     l4408:
  1862                           
  1863                           ;C:/Users/bruno/OneDrive/Documentos/ProgramacaoEmbarcada/projeto_final.X/main.c: 161:   
      +                                        lcdData(msg_ajus_alarm[1][i]);
  1864  0070AE  0E90               	movlw	low (_msg_ajus_alarm+16)
  1865  0070B0  2441               	addwf	_i^0,w,c
  1866  0070B2  6ED9               	movwf	fsr2l,c
  1867  0070B4  0E01               	movlw	high (_msg_ajus_alarm+16)
  1868  0070B6  2042               	addwfc	(_i+1)^0,w,c
  1869  0070B8  6EDA               	movwf	fsr2h,c
  1870  0070BA  50DF               	movf	indf2,w,c
  1871  0070BC  EC77  F029         	call	_lcdData
  1872  0070C0                     
  1873                           ;C:/Users/bruno/OneDrive/Documentos/ProgramacaoEmbarcada/projeto_final.X/main.c: 162:   
      +                                    }
  1874  0070C0  4A41               	infsnz	_i^0,f,c
  1875  0070C2  2A42               	incf	(_i+1)^0,f,c
  1876  0070C4  5042               	movf	(_i+1)^0,w,c
  1877  0070C6  E109               	bnz	u3940
  1878  0070C8  0E10               	movlw	16
  1879  0070CA  5C41               	subwf	_i^0,w,c
  1880  0070CC  A0D8               	btfss	status,0,c
  1881  0070CE  EF6B  F038         	goto	u3941
  1882  0070D2  EF6D  F038         	goto	u3940
  1883  0070D6                     u3941:
  1884  0070D6  EF57  F038         	goto	l4408
  1885  0070DA                     u3940:
  1886  0070DA                     
  1887                           ;C:/Users/bruno/OneDrive/Documentos/ProgramacaoEmbarcada/projeto_final.X/main.c: 165:   
      +                                    lcdCommand(0xD0);
  1888  0070DA  0ED0               	movlw	208
  1889  0070DC  EC15  F02B         	call	_lcdCommand
  1890  0070E0                     
  1891                           ;C:/Users/bruno/OneDrive/Documentos/ProgramacaoEmbarcada/projeto_final.X/main.c: 166:   
      +                                    for (i = 0; i < 16; i++) {
  1892  0070E0  0E00               	movlw	0
  1893  0070E2  6E42               	movwf	(_i+1)^0,c
  1894  0070E4  0E00               	movlw	0
  1895  0070E6  6E41               	movwf	_i^0,c
  1896  0070E8                     l4422:
  1897                           
  1898                           ;C:/Users/bruno/OneDrive/Documentos/ProgramacaoEmbarcada/projeto_final.X/main.c: 167:   
      +                                        lcdData(msg_ajus_alarm[2][i]);
  1899  0070E8  0EA0               	movlw	low (_msg_ajus_alarm+32)
  1900  0070EA  2441               	addwf	_i^0,w,c
  1901  0070EC  6ED9               	movwf	fsr2l,c
  1902  0070EE  0E01               	movlw	high (_msg_ajus_alarm+32)
  1903  0070F0  2042               	addwfc	(_i+1)^0,w,c
  1904  0070F2  6EDA               	movwf	fsr2h,c
  1905  0070F4  50DF               	movf	indf2,w,c
  1906  0070F6  EC77  F029         	call	_lcdData
  1907  0070FA                     
  1908                           ;C:/Users/bruno/OneDrive/Documentos/ProgramacaoEmbarcada/projeto_final.X/main.c: 168:   
      +                                    }
  1909  0070FA  4A41               	infsnz	_i^0,f,c
  1910  0070FC  2A42               	incf	(_i+1)^0,f,c
  1911  0070FE  5042               	movf	(_i+1)^0,w,c
  1912  007100  E109               	bnz	u3950
  1913  007102  0E10               	movlw	16
  1914  007104  5C41               	subwf	_i^0,w,c
  1915  007106  A0D8               	btfss	status,0,c
  1916  007108  EF88  F038         	goto	u3951
  1917  00710C  EF8A  F038         	goto	u3950
  1918  007110                     u3951:
  1919  007110  EF74  F038         	goto	l4422
  1920  007114                     u3950:
  1921  007114                     l4428:
  1922                           
  1923                           ;C:/Users/bruno/OneDrive/Documentos/ProgramacaoEmbarcada/projeto_final.X/main.c: 171:   
      +                                        kpDebounce();
  1924  007114  EC2E  F02E         	call	_kpDebounce	;wreg free
  1925  007118                     
  1926                           ;C:/Users/bruno/OneDrive/Documentos/ProgramacaoEmbarcada/projeto_final.X/main.c: 172:   
      +                                        if (kpRead() != tecla) {
  1927  007118  EC16  F029         	call	_kpRead	;wreg free
  1928  00711C  5076               	movf	_tecla^0,w,c
  1929  00711E  184A               	xorwf	?_kpRead^0,w,c
  1930  007120  E109               	bnz	u3960
  1931  007122  5077               	movf	(_tecla+1)^0,w,c
  1932  007124  184B               	xorwf	(?_kpRead+1)^0,w,c
  1933  007126  B4D8               	btfsc	status,2,c
  1934  007128  EF98  F038         	goto	u3961
  1935  00712C  EF9A  F038         	goto	u3960
  1936  007130                     u3961:
  1937  007130  EF8A  F038         	goto	l4428
  1938  007134                     u3960:
  1939  007134                     
  1940                           ;C:/Users/bruno/OneDrive/Documentos/ProgramacaoEmbarcada/projeto_final.X/main.c: 173:   
      +                                            tecla = kpRead();
  1941  007134  EC16  F029         	call	_kpRead	;wreg free
  1942  007138  C04A  F076         	movff	?_kpRead,_tecla
  1943  00713C  C04B  F077         	movff	?_kpRead+1,_tecla+1
  1944  007140                     
  1945                           ;C:/Users/bruno/OneDrive/Documentos/ProgramacaoEmbarcada/projeto_final.X/main.c: 176:   
      +                                            if (((tecla) & (1<<(3)))) {
  1946  007140  A676               	btfss	_tecla^0,3,c
  1947  007142  EFA5  F038         	goto	u3971
  1948  007146  EFA7  F038         	goto	u3970
  1949  00714A                     u3971:
  1950  00714A  EFD7  F038         	goto	l348
  1951  00714E                     u3970:
  1952  00714E                     
  1953                           ;C:/Users/bruno/OneDrive/Documentos/ProgramacaoEmbarcada/projeto_final.X/main.c: 177:   
      +                                                h_alar += 1;
  1954  00714E  4A37               	infsnz	_h_alar^0,f,c
  1955  007150  2A38               	incf	(_h_alar+1)^0,f,c
  1956  007152                     
  1957                           ;C:/Users/bruno/OneDrive/Documentos/ProgramacaoEmbarcada/projeto_final.X/main.c: 179:   
      +                                                if (h_alar > 23)
  1958  007152  BE38               	btfsc	(_h_alar+1)^0,7,c
  1959  007154  EFB5  F038         	goto	u3981
  1960  007158  5038               	movf	(_h_alar+1)^0,w,c
  1961  00715A  E109               	bnz	u3980
  1962  00715C  0E18               	movlw	24
  1963  00715E  5C37               	subwf	_h_alar^0,w,c
  1964  007160  A0D8               	btfss	status,0,c
  1965  007162  EFB5  F038         	goto	u3981
  1966  007166  EFB7  F038         	goto	u3980
  1967  00716A                     u3981:
  1968  00716A  EFBB  F038         	goto	l4442
  1969  00716E                     u3980:
  1970  00716E                     
  1971                           ;C:/Users/bruno/OneDrive/Documentos/ProgramacaoEmbarcada/projeto_final.X/main.c: 180:   
      +                                                    h_alar = 0;
  1972  00716E  0E00               	movlw	0
  1973  007170  6E38               	movwf	(_h_alar+1)^0,c
  1974  007172  0E00               	movlw	0
  1975  007174  6E37               	movwf	_h_alar^0,c
  1976  007176                     l4442:
  1977                           
  1978                           ;C:/Users/bruno/OneDrive/Documentos/ProgramacaoEmbarcada/projeto_final.X/main.c: 182:   
      +                                                hor_alarm[0] = ((h_alar / 10) + 48);
  1979  007176  C037  F04A         	movff	_h_alar,___awdiv@dividend
  1980  00717A  C038  F04B         	movff	_h_alar+1,___awdiv@dividend+1
  1981  00717E  0E00               	movlw	0
  1982  007180  6E4D               	movwf	(___awdiv@divisor+1)^0,c
  1983  007182  0E0A               	movlw	10
  1984  007184  6E4C               	movwf	___awdiv@divisor^0,c
  1985  007186  EC80  F02C         	call	___awdiv	;wreg free
  1986  00718A  504A               	movf	?___awdiv^0,w,c
  1987  00718C  0F30               	addlw	48
  1988  00718E  6E64               	movwf	_hor_alarm^0,c
  1989  007190                     
  1990                           ;C:/Users/bruno/OneDrive/Documentos/ProgramacaoEmbarcada/projeto_final.X/main.c: 183:   
      +                                                hor_alarm[1] = ((h_alar % 10) + 48);
  1991  007190  C037  F04A         	movff	_h_alar,___awmod@dividend
  1992  007194  C038  F04B         	movff	_h_alar+1,___awmod@dividend+1
  1993  007198  0E00               	movlw	0
  1994  00719A  6E4D               	movwf	(___awmod@divisor+1)^0,c
  1995  00719C  0E0A               	movlw	10
  1996  00719E  6E4C               	movwf	___awmod@divisor^0,c
  1997  0071A0  EC28  F02C         	call	___awmod	;wreg free
  1998  0071A4  504A               	movf	?___awmod^0,w,c
  1999  0071A6  0F30               	addlw	48
  2000  0071A8  6E65               	movwf	(_hor_alarm+1)^0,c
  2001                           
  2002                           ;C:/Users/bruno/OneDrive/Documentos/ProgramacaoEmbarcada/projeto_final.X/main.c: 184:   
      +                                            }
  2003  0071AA  EFCD  F039         	goto	l4512
  2004  0071AE                     l348:
  2005  0071AE  A476               	btfss	_tecla^0,2,c
  2006  0071B0  EFDC  F038         	goto	u3991
  2007  0071B4  EFDE  F038         	goto	u3990
  2008  0071B8                     u3991:
  2009  0071B8  EFF4  F038         	goto	l351
  2010  0071BC                     u3990:
  2011  0071BC                     
  2012                           ;C:/Users/bruno/OneDrive/Documentos/ProgramacaoEmbarcada/projeto_final.X/main.c: 186:   
      +                                                h_alar -= 1;
  2013  0071BC  0637               	decf	_h_alar^0,f,c
  2014  0071BE  A0D8               	btfss	status,0,c
  2015  0071C0  0638               	decf	(_h_alar+1)^0,f,c
  2016  0071C2                     
  2017                           ;C:/Users/bruno/OneDrive/Documentos/ProgramacaoEmbarcada/projeto_final.X/main.c: 188:   
      +                                                if (h_alar < 1)
  2018  0071C2  BE38               	btfsc	(_h_alar+1)^0,7,c
  2019  0071C4  EFEE  F038         	goto	u4000
  2020  0071C8  5038               	movf	(_h_alar+1)^0,w,c
  2021  0071CA  E106               	bnz	u4001
  2022  0071CC  0437               	decf	_h_alar^0,w,c
  2023  0071CE  B0D8               	btfsc	status,0,c
  2024  0071D0  EFEC  F038         	goto	u4001
  2025  0071D4  EFEE  F038         	goto	u4000
  2026  0071D8                     u4001:
  2027  0071D8  EFBB  F038         	goto	l4442
  2028  0071DC                     u4000:
  2029  0071DC                     
  2030                           ;C:/Users/bruno/OneDrive/Documentos/ProgramacaoEmbarcada/projeto_final.X/main.c: 189:   
      +                                                    h_alar = 23;
  2031  0071DC  0E00               	movlw	0
  2032  0071DE  6E38               	movwf	(_h_alar+1)^0,c
  2033  0071E0  0E17               	movlw	23
  2034  0071E2  6E37               	movwf	_h_alar^0,c
  2035  0071E4  EFBB  F038         	goto	l4442
  2036  0071E8                     l351:
  2037  0071E8  AE76               	btfss	_tecla^0,7,c
  2038  0071EA  EFF9  F038         	goto	u4011
  2039  0071EE  EFFB  F038         	goto	u4010
  2040  0071F2                     u4011:
  2041  0071F2  EF2B  F039         	goto	l354
  2042  0071F6                     u4010:
  2043  0071F6                     
  2044                           ;C:/Users/bruno/OneDrive/Documentos/ProgramacaoEmbarcada/projeto_final.X/main.c: 195:   
      +                                                m_alar += 1;
  2045  0071F6  4A35               	infsnz	_m_alar^0,f,c
  2046  0071F8  2A36               	incf	(_m_alar+1)^0,f,c
  2047  0071FA                     
  2048                           ;C:/Users/bruno/OneDrive/Documentos/ProgramacaoEmbarcada/projeto_final.X/main.c: 197:   
      +                                                if (m_alar > 59)
  2049  0071FA  BE36               	btfsc	(_m_alar+1)^0,7,c
  2050  0071FC  EF09  F039         	goto	u4021
  2051  007200  5036               	movf	(_m_alar+1)^0,w,c
  2052  007202  E109               	bnz	u4020
  2053  007204  0E3C               	movlw	60
  2054  007206  5C35               	subwf	_m_alar^0,w,c
  2055  007208  A0D8               	btfss	status,0,c
  2056  00720A  EF09  F039         	goto	u4021
  2057  00720E  EF0B  F039         	goto	u4020
  2058  007212                     u4021:
  2059  007212  EF0F  F039         	goto	l4462
  2060  007216                     u4020:
  2061  007216                     
  2062                           ;C:/Users/bruno/OneDrive/Documentos/ProgramacaoEmbarcada/projeto_final.X/main.c: 198:   
      +                                                    m_alar = 0;
  2063  007216  0E00               	movlw	0
  2064  007218  6E36               	movwf	(_m_alar+1)^0,c
  2065  00721A  0E00               	movlw	0
  2066  00721C  6E35               	movwf	_m_alar^0,c
  2067  00721E                     l4462:
  2068                           
  2069                           ;C:/Users/bruno/OneDrive/Documentos/ProgramacaoEmbarcada/projeto_final.X/main.c: 200:   
      +                                                hor_alarm[3] = ((m_alar / 10) + 48);
  2070  00721E  C035  F04A         	movff	_m_alar,___awdiv@dividend
  2071  007222  C036  F04B         	movff	_m_alar+1,___awdiv@dividend+1
  2072  007226  0E00               	movlw	0
  2073  007228  6E4D               	movwf	(___awdiv@divisor+1)^0,c
  2074  00722A  0E0A               	movlw	10
  2075  00722C  6E4C               	movwf	___awdiv@divisor^0,c
  2076  00722E  EC80  F02C         	call	___awdiv	;wreg free
  2077  007232  504A               	movf	?___awdiv^0,w,c
  2078  007234  0F30               	addlw	48
  2079  007236  6E67               	movwf	(_hor_alarm+3)^0,c
  2080  007238                     
  2081                           ;C:/Users/bruno/OneDrive/Documentos/ProgramacaoEmbarcada/projeto_final.X/main.c: 201:   
      +                                                hor_alarm[4] = ((m_alar % 10) + 48);
  2082  007238  C035  F04A         	movff	_m_alar,___awmod@dividend
  2083  00723C  C036  F04B         	movff	_m_alar+1,___awmod@dividend+1
  2084  007240  0E00               	movlw	0
  2085  007242  6E4D               	movwf	(___awmod@divisor+1)^0,c
  2086  007244  0E0A               	movlw	10
  2087  007246  6E4C               	movwf	___awmod@divisor^0,c
  2088  007248  EC28  F02C         	call	___awmod	;wreg free
  2089  00724C  504A               	movf	?___awmod^0,w,c
  2090  00724E  0F30               	addlw	48
  2091  007250  6E68               	movwf	(_hor_alarm+4)^0,c
  2092                           
  2093                           ;C:/Users/bruno/OneDrive/Documentos/ProgramacaoEmbarcada/projeto_final.X/main.c: 202:   
      +                                            }
  2094  007252  EFCD  F039         	goto	l4512
  2095  007256                     l354:
  2096  007256  AC76               	btfss	_tecla^0,6,c
  2097  007258  EF30  F039         	goto	u4031
  2098  00725C  EF32  F039         	goto	u4030
  2099  007260                     u4031:
  2100  007260  EF48  F039         	goto	l357
  2101  007264                     u4030:
  2102  007264                     
  2103                           ;C:/Users/bruno/OneDrive/Documentos/ProgramacaoEmbarcada/projeto_final.X/main.c: 204:   
      +                                                m_alar -= 1;
  2104  007264  0635               	decf	_m_alar^0,f,c
  2105  007266  A0D8               	btfss	status,0,c
  2106  007268  0636               	decf	(_m_alar+1)^0,f,c
  2107  00726A                     
  2108                           ;C:/Users/bruno/OneDrive/Documentos/ProgramacaoEmbarcada/projeto_final.X/main.c: 206:   
      +                                                if (m_alar < 1)
  2109  00726A  BE36               	btfsc	(_m_alar+1)^0,7,c
  2110  00726C  EF42  F039         	goto	u4040
  2111  007270  5036               	movf	(_m_alar+1)^0,w,c
  2112  007272  E106               	bnz	u4041
  2113  007274  0435               	decf	_m_alar^0,w,c
  2114  007276  B0D8               	btfsc	status,0,c
  2115  007278  EF40  F039         	goto	u4041
  2116  00727C  EF42  F039         	goto	u4040
  2117  007280                     u4041:
  2118  007280  EF0F  F039         	goto	l4462
  2119  007284                     u4040:
  2120  007284                     
  2121                           ;C:/Users/bruno/OneDrive/Documentos/ProgramacaoEmbarcada/projeto_final.X/main.c: 207:   
      +                                                    m_alar = 59;
  2122  007284  0E00               	movlw	0
  2123  007286  6E36               	movwf	(_m_alar+1)^0,c
  2124  007288  0E3B               	movlw	59
  2125  00728A  6E35               	movwf	_m_alar^0,c
  2126  00728C  EF0F  F039         	goto	l4462
  2127  007290                     l357:
  2128  007290  A677               	btfss	(_tecla+1)^0,3,c
  2129  007292  EF4D  F039         	goto	u4051
  2130  007296  EF4F  F039         	goto	u4050
  2131  00729A                     u4051:
  2132  00729A  EF7F  F039         	goto	l360
  2133  00729E                     u4050:
  2134  00729E                     
  2135                           ;C:/Users/bruno/OneDrive/Documentos/ProgramacaoEmbarcada/projeto_final.X/main.c: 213:   
      +                                                s_alar += 1;
  2136  00729E  4A33               	infsnz	_s_alar^0,f,c
  2137  0072A0  2A34               	incf	(_s_alar+1)^0,f,c
  2138  0072A2                     
  2139                           ;C:/Users/bruno/OneDrive/Documentos/ProgramacaoEmbarcada/projeto_final.X/main.c: 215:   
      +                                                if (s_alar > 59)
  2140  0072A2  BE34               	btfsc	(_s_alar+1)^0,7,c
  2141  0072A4  EF5D  F039         	goto	u4061
  2142  0072A8  5034               	movf	(_s_alar+1)^0,w,c
  2143  0072AA  E109               	bnz	u4060
  2144  0072AC  0E3C               	movlw	60
  2145  0072AE  5C33               	subwf	_s_alar^0,w,c
  2146  0072B0  A0D8               	btfss	status,0,c
  2147  0072B2  EF5D  F039         	goto	u4061
  2148  0072B6  EF5F  F039         	goto	u4060
  2149  0072BA                     u4061:
  2150  0072BA  EF63  F039         	goto	l4482
  2151  0072BE                     u4060:
  2152  0072BE                     
  2153                           ;C:/Users/bruno/OneDrive/Documentos/ProgramacaoEmbarcada/projeto_final.X/main.c: 216:   
      +                                                    s_alar = 0;
  2154  0072BE  0E00               	movlw	0
  2155  0072C0  6E34               	movwf	(_s_alar+1)^0,c
  2156  0072C2  0E00               	movlw	0
  2157  0072C4  6E33               	movwf	_s_alar^0,c
  2158  0072C6                     l4482:
  2159                           
  2160                           ;C:/Users/bruno/OneDrive/Documentos/ProgramacaoEmbarcada/projeto_final.X/main.c: 218:   
      +                                                hor_alarm[6] = ((s_alar / 10) + 48);
  2161  0072C6  C033  F04A         	movff	_s_alar,___awdiv@dividend
  2162  0072CA  C034  F04B         	movff	_s_alar+1,___awdiv@dividend+1
  2163  0072CE  0E00               	movlw	0
  2164  0072D0  6E4D               	movwf	(___awdiv@divisor+1)^0,c
  2165  0072D2  0E0A               	movlw	10
  2166  0072D4  6E4C               	movwf	___awdiv@divisor^0,c
  2167  0072D6  EC80  F02C         	call	___awdiv	;wreg free
  2168  0072DA  504A               	movf	?___awdiv^0,w,c
  2169  0072DC  0F30               	addlw	48
  2170  0072DE  6E6A               	movwf	(_hor_alarm+6)^0,c
  2171  0072E0                     
  2172                           ;C:/Users/bruno/OneDrive/Documentos/ProgramacaoEmbarcada/projeto_final.X/main.c: 219:   
      +                                                hor_alarm[7] = ((s_alar % 10) + 48);
  2173  0072E0  C033  F04A         	movff	_s_alar,___awmod@dividend
  2174  0072E4  C034  F04B         	movff	_s_alar+1,___awmod@dividend+1
  2175  0072E8  0E00               	movlw	0
  2176  0072EA  6E4D               	movwf	(___awmod@divisor+1)^0,c
  2177  0072EC  0E0A               	movlw	10
  2178  0072EE  6E4C               	movwf	___awmod@divisor^0,c
  2179  0072F0  EC28  F02C         	call	___awmod	;wreg free
  2180  0072F4  504A               	movf	?___awmod^0,w,c
  2181  0072F6  0F30               	addlw	48
  2182  0072F8  6E6B               	movwf	(_hor_alarm+7)^0,c
  2183                           
  2184                           ;C:/Users/bruno/OneDrive/Documentos/ProgramacaoEmbarcada/projeto_final.X/main.c: 220:   
      +                                            }
  2185  0072FA  EFCD  F039         	goto	l4512
  2186  0072FE                     l360:
  2187  0072FE  A477               	btfss	(_tecla+1)^0,2,c
  2188  007300  EF84  F039         	goto	u4071
  2189  007304  EF86  F039         	goto	u4070
  2190  007308                     u4071:
  2191  007308  EF9C  F039         	goto	l363
  2192  00730C                     u4070:
  2193  00730C                     
  2194                           ;C:/Users/bruno/OneDrive/Documentos/ProgramacaoEmbarcada/projeto_final.X/main.c: 222:   
      +                                                s_alar -= 1;
  2195  00730C  0633               	decf	_s_alar^0,f,c
  2196  00730E  A0D8               	btfss	status,0,c
  2197  007310  0634               	decf	(_s_alar+1)^0,f,c
  2198  007312                     
  2199                           ;C:/Users/bruno/OneDrive/Documentos/ProgramacaoEmbarcada/projeto_final.X/main.c: 224:   
      +                                                if (s_alar < 1)
  2200  007312  BE34               	btfsc	(_s_alar+1)^0,7,c
  2201  007314  EF96  F039         	goto	u4080
  2202  007318  5034               	movf	(_s_alar+1)^0,w,c
  2203  00731A  E106               	bnz	u4081
  2204  00731C  0433               	decf	_s_alar^0,w,c
  2205  00731E  B0D8               	btfsc	status,0,c
  2206  007320  EF94  F039         	goto	u4081
  2207  007324  EF96  F039         	goto	u4080
  2208  007328                     u4081:
  2209  007328  EF63  F039         	goto	l4482
  2210  00732C                     u4080:
  2211  00732C                     
  2212                           ;C:/Users/bruno/OneDrive/Documentos/ProgramacaoEmbarcada/projeto_final.X/main.c: 225:   
      +                                                    s_alar = 59;
  2213  00732C  0E00               	movlw	0
  2214  00732E  6E34               	movwf	(_s_alar+1)^0,c
  2215  007330  0E3B               	movlw	59
  2216  007332  6E33               	movwf	_s_alar^0,c
  2217  007334  EF63  F039         	goto	l4482
  2218  007338                     l363:
  2219  007338  A076               	btfss	_tecla^0,0,c
  2220  00733A  EFA1  F039         	goto	u4091
  2221  00733E  EFA3  F039         	goto	u4090
  2222  007342                     u4091:
  2223  007342  EFC4  F039         	goto	l366
  2224  007346                     u4090:
  2225  007346                     
  2226                           ;C:/Users/bruno/OneDrive/Documentos/ProgramacaoEmbarcada/projeto_final.X/main.c: 231:   
      +                                                for (i = 0; i < 8; i++) {
  2227  007346  0E00               	movlw	0
  2228  007348  6E42               	movwf	(_i+1)^0,c
  2229  00734A  0E00               	movlw	0
  2230  00734C  6E41               	movwf	_i^0,c
  2231  00734E                     l4502:
  2232                           
  2233                           ;C:/Users/bruno/OneDrive/Documentos/ProgramacaoEmbarcada/projeto_final.X/main.c: 232:   
      +                                                    hor_alarm[i] = aux_alarm[i];
  2234  00734E  0EF0               	movlw	low _aux_alarm
  2235  007350  2441               	addwf	_i^0,w,c
  2236  007352  6ED9               	movwf	fsr2l,c
  2237  007354  0E00               	movlw	high _aux_alarm
  2238  007356  2042               	addwfc	(_i+1)^0,w,c
  2239  007358  6EDA               	movwf	fsr2h,c
  2240  00735A  0E64               	movlw	low _hor_alarm
  2241  00735C  2441               	addwf	_i^0,w,c
  2242  00735E  6EE1               	movwf	fsr1l,c
  2243  007360  0E00               	movlw	high _hor_alarm
  2244  007362  2042               	addwfc	(_i+1)^0,w,c
  2245  007364  6EE2               	movwf	fsr1h,c
  2246  007366  CFDF FFE7          	movff	indf2,indf1
  2247  00736A                     
  2248                           ;C:/Users/bruno/OneDrive/Documentos/ProgramacaoEmbarcada/projeto_final.X/main.c: 233:   
      +                                                }
  2249  00736A  4A41               	infsnz	_i^0,f,c
  2250  00736C  2A42               	incf	(_i+1)^0,f,c
  2251  00736E  5042               	movf	(_i+1)^0,w,c
  2252  007370  E109               	bnz	u4100
  2253  007372  0E08               	movlw	8
  2254  007374  5C41               	subwf	_i^0,w,c
  2255  007376  A0D8               	btfss	status,0,c
  2256  007378  EFC0  F039         	goto	u4101
  2257  00737C  EFC2  F039         	goto	u4100
  2258  007380                     u4101:
  2259  007380  EFA7  F039         	goto	l4502
  2260  007384                     u4100:
  2261  007384  EFF8  F035         	goto	l4222
  2262  007388                     l366:
  2263  007388  A077               	btfss	(_tecla+1)^0,0,c
  2264  00738A  EFC9  F039         	goto	u4111
  2265  00738E  EFCB  F039         	goto	u4110
  2266  007392                     u4111:
  2267  007392  EFCD  F039         	goto	l362
  2268  007396                     u4110:
  2269  007396  EFF8  F035         	goto	l4222
  2270  00739A                     l362:
  2271  00739A                     l4512:
  2272                           
  2273                           ;C:/Users/bruno/OneDrive/Documentos/ProgramacaoEmbarcada/projeto_final.X/main.c: 241:   
      +                                            lcdCommand(0x80);
  2274  00739A  0E80               	movlw	128
  2275  00739C  EC15  F02B         	call	_lcdCommand
  2276  0073A0                     
  2277                           ;C:/Users/bruno/OneDrive/Documentos/ProgramacaoEmbarcada/projeto_final.X/main.c: 242:   
      +                                            for (i = 0; i < 8; i++) {
  2278  0073A0  0E00               	movlw	0
  2279  0073A2  6E42               	movwf	(_i+1)^0,c
  2280  0073A4  0E00               	movlw	0
  2281  0073A6  6E41               	movwf	_i^0,c
  2282  0073A8                     l4520:
  2283                           
  2284                           ;C:/Users/bruno/OneDrive/Documentos/ProgramacaoEmbarcada/projeto_final.X/main.c: 243:   
      +                                                lcdData(hor_alarm[i]);
  2285  0073A8  0E64               	movlw	low _hor_alarm
  2286  0073AA  2441               	addwf	_i^0,w,c
  2287  0073AC  6ED9               	movwf	fsr2l,c
  2288  0073AE  0E00               	movlw	high _hor_alarm
  2289  0073B0  2042               	addwfc	(_i+1)^0,w,c
  2290  0073B2  6EDA               	movwf	fsr2h,c
  2291  0073B4  50DF               	movf	indf2,w,c
  2292  0073B6  EC77  F029         	call	_lcdData
  2293  0073BA                     
  2294                           ;C:/Users/bruno/OneDrive/Documentos/ProgramacaoEmbarcada/projeto_final.X/main.c: 244:   
      +                                            }
  2295  0073BA  4A41               	infsnz	_i^0,f,c
  2296  0073BC  2A42               	incf	(_i+1)^0,f,c
  2297  0073BE  5042               	movf	(_i+1)^0,w,c
  2298  0073C0  E109               	bnz	u4120
  2299  0073C2  0E08               	movlw	8
  2300  0073C4  5C41               	subwf	_i^0,w,c
  2301  0073C6  A0D8               	btfss	status,0,c
  2302  0073C8  EFE8  F039         	goto	u4121
  2303  0073CC  EFEA  F039         	goto	u4120
  2304  0073D0                     u4121:
  2305  0073D0  EFD4  F039         	goto	l4520
  2306  0073D4                     u4120:
  2307  0073D4  EF8A  F038         	goto	l4428
  2308  0073D8                     l335:
  2309  0073D8  AE76               	btfss	_tecla^0,7,c
  2310  0073DA  EFF1  F039         	goto	u4131
  2311  0073DE  EFF3  F039         	goto	u4130
  2312  0073E2                     u4131:
  2313  0073E2  EFF8  F035         	goto	l4222
  2314  0073E6                     u4130:
  2315  0073E6                     l4526:
  2316                           
  2317                           ;C:/Users/bruno/OneDrive/Documentos/ProgramacaoEmbarcada/projeto_final.X/main.c: 252:   
      +                                        lcdCommand(0x80);
  2318  0073E6  0E80               	movlw	128
  2319  0073E8  EC15  F02B         	call	_lcdCommand
  2320  0073EC                     
  2321                           ;C:/Users/bruno/OneDrive/Documentos/ProgramacaoEmbarcada/projeto_final.X/main.c: 253:   
      +                                        for (i = 0; i < 16; i++) {
  2322  0073EC  0E00               	movlw	0
  2323  0073EE  6E42               	movwf	(_i+1)^0,c
  2324  0073F0  0E00               	movlw	0
  2325  0073F2  6E41               	movwf	_i^0,c
  2326  0073F4                     l4534:
  2327                           
  2328                           ;C:/Users/bruno/OneDrive/Documentos/ProgramacaoEmbarcada/projeto_final.X/main.c: 254:   
      +                                            lcdData(msg_opc_alarm[0][i]);
  2329  0073F4  0E40               	movlw	low _msg_opc_alarm
  2330  0073F6  2441               	addwf	_i^0,w,c
  2331  0073F8  6ED9               	movwf	fsr2l,c
  2332  0073FA  0E01               	movlw	high _msg_opc_alarm
  2333  0073FC  2042               	addwfc	(_i+1)^0,w,c
  2334  0073FE  6EDA               	movwf	fsr2h,c
  2335  007400  50DF               	movf	indf2,w,c
  2336  007402  EC77  F029         	call	_lcdData
  2337  007406                     
  2338                           ;C:/Users/bruno/OneDrive/Documentos/ProgramacaoEmbarcada/projeto_final.X/main.c: 255:   
      +                                        }
  2339  007406  4A41               	infsnz	_i^0,f,c
  2340  007408  2A42               	incf	(_i+1)^0,f,c
  2341  00740A  5042               	movf	(_i+1)^0,w,c
  2342  00740C  E109               	bnz	u4140
  2343  00740E  0E10               	movlw	16
  2344  007410  5C41               	subwf	_i^0,w,c
  2345  007412  A0D8               	btfss	status,0,c
  2346  007414  EF0E  F03A         	goto	u4141
  2347  007418  EF10  F03A         	goto	u4140
  2348  00741C                     u4141:
  2349  00741C  EFFA  F039         	goto	l4534
  2350  007420                     u4140:
  2351  007420                     
  2352                           ;C:/Users/bruno/OneDrive/Documentos/ProgramacaoEmbarcada/projeto_final.X/main.c: 258:   
      +                                        lcdCommand(0xC0);
  2353  007420  0EC0               	movlw	192
  2354  007422  EC15  F02B         	call	_lcdCommand
  2355  007426                     
  2356                           ;C:/Users/bruno/OneDrive/Documentos/ProgramacaoEmbarcada/projeto_final.X/main.c: 259:   
      +                                        for (i = 0; i < 16; i++) {
  2357  007426  0E00               	movlw	0
  2358  007428  6E42               	movwf	(_i+1)^0,c
  2359  00742A  0E00               	movlw	0
  2360  00742C  6E41               	movwf	_i^0,c
  2361  00742E                     l4548:
  2362                           
  2363                           ;C:/Users/bruno/OneDrive/Documentos/ProgramacaoEmbarcada/projeto_final.X/main.c: 260:   
      +                                            lcdData(msg_opc_alarm[1][i]);
  2364  00742E  0E50               	movlw	low (_msg_opc_alarm+16)
  2365  007430  2441               	addwf	_i^0,w,c
  2366  007432  6ED9               	movwf	fsr2l,c
  2367  007434  0E01               	movlw	high (_msg_opc_alarm+16)
  2368  007436  2042               	addwfc	(_i+1)^0,w,c
  2369  007438  6EDA               	movwf	fsr2h,c
  2370  00743A  50DF               	movf	indf2,w,c
  2371  00743C  EC77  F029         	call	_lcdData
  2372  007440                     
  2373                           ;C:/Users/bruno/OneDrive/Documentos/ProgramacaoEmbarcada/projeto_final.X/main.c: 261:   
      +                                        }
  2374  007440  4A41               	infsnz	_i^0,f,c
  2375  007442  2A42               	incf	(_i+1)^0,f,c
  2376  007444  5042               	movf	(_i+1)^0,w,c
  2377  007446  E109               	bnz	u4150
  2378  007448  0E10               	movlw	16
  2379  00744A  5C41               	subwf	_i^0,w,c
  2380  00744C  A0D8               	btfss	status,0,c
  2381  00744E  EF2B  F03A         	goto	u4151
  2382  007452  EF2D  F03A         	goto	u4150
  2383  007456                     u4151:
  2384  007456  EF17  F03A         	goto	l4548
  2385  00745A                     u4150:
  2386  00745A                     
  2387                           ;C:/Users/bruno/OneDrive/Documentos/ProgramacaoEmbarcada/projeto_final.X/main.c: 264:   
      +                                        lcdCommand(0x90);
  2388  00745A  0E90               	movlw	144
  2389  00745C  EC15  F02B         	call	_lcdCommand
  2390  007460                     
  2391                           ;C:/Users/bruno/OneDrive/Documentos/ProgramacaoEmbarcada/projeto_final.X/main.c: 265:   
      +                                        for (i = 0; i < 16; i++) {
  2392  007460  0E00               	movlw	0
  2393  007462  6E42               	movwf	(_i+1)^0,c
  2394  007464  0E00               	movlw	0
  2395  007466  6E41               	movwf	_i^0,c
  2396  007468                     l4562:
  2397                           
  2398                           ;C:/Users/bruno/OneDrive/Documentos/ProgramacaoEmbarcada/projeto_final.X/main.c: 266:   
      +                                            lcdData(msg_opc_alarm[2][i]);
  2399  007468  0E60               	movlw	low (_msg_opc_alarm+32)
  2400  00746A  2441               	addwf	_i^0,w,c
  2401  00746C  6ED9               	movwf	fsr2l,c
  2402  00746E  0E01               	movlw	high (_msg_opc_alarm+32)
  2403  007470  2042               	addwfc	(_i+1)^0,w,c
  2404  007472  6EDA               	movwf	fsr2h,c
  2405  007474  50DF               	movf	indf2,w,c
  2406  007476  EC77  F029         	call	_lcdData
  2407  00747A                     
  2408                           ;C:/Users/bruno/OneDrive/Documentos/ProgramacaoEmbarcada/projeto_final.X/main.c: 267:   
      +                                        }
  2409  00747A  4A41               	infsnz	_i^0,f,c
  2410  00747C  2A42               	incf	(_i+1)^0,f,c
  2411  00747E  5042               	movf	(_i+1)^0,w,c
  2412  007480  E109               	bnz	u4160
  2413  007482  0E10               	movlw	16
  2414  007484  5C41               	subwf	_i^0,w,c
  2415  007486  A0D8               	btfss	status,0,c
  2416  007488  EF48  F03A         	goto	u4161
  2417  00748C  EF4A  F03A         	goto	u4160
  2418  007490                     u4161:
  2419  007490  EF34  F03A         	goto	l4562
  2420  007494                     u4160:
  2421  007494                     
  2422                           ;C:/Users/bruno/OneDrive/Documentos/ProgramacaoEmbarcada/projeto_final.X/main.c: 270:   
      +                                        lcdCommand(0xD0);
  2423  007494  0ED0               	movlw	208
  2424  007496  EC15  F02B         	call	_lcdCommand
  2425  00749A                     
  2426                           ;C:/Users/bruno/OneDrive/Documentos/ProgramacaoEmbarcada/projeto_final.X/main.c: 271:   
      +                                        for (i = 0; i < 16; i++) {
  2427  00749A  0E00               	movlw	0
  2428  00749C  6E42               	movwf	(_i+1)^0,c
  2429  00749E  0E00               	movlw	0
  2430  0074A0  6E41               	movwf	_i^0,c
  2431  0074A2                     l4576:
  2432                           
  2433                           ;C:/Users/bruno/OneDrive/Documentos/ProgramacaoEmbarcada/projeto_final.X/main.c: 272:   
      +                                            lcdData(msg_opc_alarm[3][i]);
  2434  0074A2  0E70               	movlw	low (_msg_opc_alarm+48)
  2435  0074A4  2441               	addwf	_i^0,w,c
  2436  0074A6  6ED9               	movwf	fsr2l,c
  2437  0074A8  0E01               	movlw	high (_msg_opc_alarm+48)
  2438  0074AA  2042               	addwfc	(_i+1)^0,w,c
  2439  0074AC  6EDA               	movwf	fsr2h,c
  2440  0074AE  50DF               	movf	indf2,w,c
  2441  0074B0  EC77  F029         	call	_lcdData
  2442  0074B4                     
  2443                           ;C:/Users/bruno/OneDrive/Documentos/ProgramacaoEmbarcada/projeto_final.X/main.c: 273:   
      +                                        }
  2444  0074B4  4A41               	infsnz	_i^0,f,c
  2445  0074B6  2A42               	incf	(_i+1)^0,f,c
  2446  0074B8  5042               	movf	(_i+1)^0,w,c
  2447  0074BA  E109               	bnz	u4170
  2448  0074BC  0E10               	movlw	16
  2449  0074BE  5C41               	subwf	_i^0,w,c
  2450  0074C0  A0D8               	btfss	status,0,c
  2451  0074C2  EF65  F03A         	goto	u4171
  2452  0074C6  EF67  F03A         	goto	u4170
  2453  0074CA                     u4171:
  2454  0074CA  EF51  F03A         	goto	l4576
  2455  0074CE                     u4170:
  2456  0074CE                     l4582:
  2457                           
  2458                           ;C:/Users/bruno/OneDrive/Documentos/ProgramacaoEmbarcada/projeto_final.X/main.c: 275:   
      +                                            kpDebounce();
  2459  0074CE  EC2E  F02E         	call	_kpDebounce	;wreg free
  2460  0074D2                     
  2461                           ;C:/Users/bruno/OneDrive/Documentos/ProgramacaoEmbarcada/projeto_final.X/main.c: 276:   
      +                                            if (kpRead() != tecla) {
  2462  0074D2  EC16  F029         	call	_kpRead	;wreg free
  2463  0074D6  5076               	movf	_tecla^0,w,c
  2464  0074D8  184A               	xorwf	?_kpRead^0,w,c
  2465  0074DA  E109               	bnz	u4180
  2466  0074DC  5077               	movf	(_tecla+1)^0,w,c
  2467  0074DE  184B               	xorwf	(?_kpRead+1)^0,w,c
  2468  0074E0  B4D8               	btfsc	status,2,c
  2469  0074E2  EF75  F03A         	goto	u4181
  2470  0074E6  EF77  F03A         	goto	u4180
  2471  0074EA                     u4181:
  2472  0074EA  EF67  F03A         	goto	l4582
  2473  0074EE                     u4180:
  2474  0074EE                     
  2475                           ;C:/Users/bruno/OneDrive/Documentos/ProgramacaoEmbarcada/projeto_final.X/main.c: 277:   
      +                                                tecla = kpRead();
  2476  0074EE  EC16  F029         	call	_kpRead	;wreg free
  2477  0074F2  C04A  F076         	movff	?_kpRead,_tecla
  2478  0074F6  C04B  F077         	movff	?_kpRead+1,_tecla+1
  2479  0074FA                     
  2480                           ;C:/Users/bruno/OneDrive/Documentos/ProgramacaoEmbarcada/projeto_final.X/main.c: 283:   
      +                                        if (((tecla) & (1<<(3)))) {
  2481  0074FA  A676               	btfss	_tecla^0,3,c
  2482  0074FC  EF82  F03A         	goto	u4191
  2483  007500  EF84  F03A         	goto	u4190
  2484  007504                     u4191:
  2485  007504  EF4B  F03B         	goto	l388
  2486  007508                     u4190:
  2487  007508                     
  2488                           ;C:/Users/bruno/OneDrive/Documentos/ProgramacaoEmbarcada/projeto_final.X/main.c: 285:   
      +                                            lcdCommand(0x80);
  2489  007508  0E80               	movlw	128
  2490  00750A  EC15  F02B         	call	_lcdCommand
  2491  00750E                     
  2492                           ;C:/Users/bruno/OneDrive/Documentos/ProgramacaoEmbarcada/projeto_final.X/main.c: 286:   
      +                                            for (i = 0; i < 16; i++) {
  2493  00750E  0E00               	movlw	0
  2494  007510  6E42               	movwf	(_i+1)^0,c
  2495  007512  0E00               	movlw	0
  2496  007514  6E41               	movwf	_i^0,c
  2497  007516                     l4596:
  2498                           
  2499                           ;C:/Users/bruno/OneDrive/Documentos/ProgramacaoEmbarcada/projeto_final.X/main.c: 287:   
      +                                                lcdData(msg_luzes[0][i]);
  2500  007516  0EC0               	movlw	low _msg_luzes
  2501  007518  2441               	addwf	_i^0,w,c
  2502  00751A  6ED9               	movwf	fsr2l,c
  2503  00751C  0E00               	movlw	high _msg_luzes
  2504  00751E  2042               	addwfc	(_i+1)^0,w,c
  2505  007520  6EDA               	movwf	fsr2h,c
  2506  007522  50DF               	movf	indf2,w,c
  2507  007524  EC77  F029         	call	_lcdData
  2508  007528                     
  2509                           ;C:/Users/bruno/OneDrive/Documentos/ProgramacaoEmbarcada/projeto_final.X/main.c: 288:   
      +                                            }
  2510  007528  4A41               	infsnz	_i^0,f,c
  2511  00752A  2A42               	incf	(_i+1)^0,f,c
  2512  00752C  5042               	movf	(_i+1)^0,w,c
  2513  00752E  E109               	bnz	u4200
  2514  007530  0E10               	movlw	16
  2515  007532  5C41               	subwf	_i^0,w,c
  2516  007534  A0D8               	btfss	status,0,c
  2517  007536  EF9F  F03A         	goto	u4201
  2518  00753A  EFA1  F03A         	goto	u4200
  2519  00753E                     u4201:
  2520  00753E  EF8B  F03A         	goto	l4596
  2521  007542                     u4200:
  2522  007542                     
  2523                           ;C:/Users/bruno/OneDrive/Documentos/ProgramacaoEmbarcada/projeto_final.X/main.c: 291:   
      +                                            lcdCommand(0xC0);
  2524  007542  0EC0               	movlw	192
  2525  007544  EC15  F02B         	call	_lcdCommand
  2526  007548                     
  2527                           ;C:/Users/bruno/OneDrive/Documentos/ProgramacaoEmbarcada/projeto_final.X/main.c: 292:   
      +                                            for (i = 0; i < 16; i++) {
  2528  007548  0E00               	movlw	0
  2529  00754A  6E42               	movwf	(_i+1)^0,c
  2530  00754C  0E00               	movlw	0
  2531  00754E  6E41               	movwf	_i^0,c
  2532  007550                     l4610:
  2533                           
  2534                           ;C:/Users/bruno/OneDrive/Documentos/ProgramacaoEmbarcada/projeto_final.X/main.c: 293:   
      +                                                lcdData(' ');
  2535  007550  0E20               	movlw	32
  2536  007552  EC77  F029         	call	_lcdData
  2537  007556                     
  2538                           ;C:/Users/bruno/OneDrive/Documentos/ProgramacaoEmbarcada/projeto_final.X/main.c: 294:   
      +                                            }
  2539  007556  4A41               	infsnz	_i^0,f,c
  2540  007558  2A42               	incf	(_i+1)^0,f,c
  2541  00755A  5042               	movf	(_i+1)^0,w,c
  2542  00755C  E109               	bnz	u4210
  2543  00755E  0E10               	movlw	16
  2544  007560  5C41               	subwf	_i^0,w,c
  2545  007562  A0D8               	btfss	status,0,c
  2546  007564  EFB6  F03A         	goto	u4211
  2547  007568  EFB8  F03A         	goto	u4210
  2548  00756C                     u4211:
  2549  00756C  EFA8  F03A         	goto	l4610
  2550  007570                     u4210:
  2551  007570                     
  2552                           ;C:/Users/bruno/OneDrive/Documentos/ProgramacaoEmbarcada/projeto_final.X/main.c: 297:   
      +                                            lcdCommand(0x90);
  2553  007570  0E90               	movlw	144
  2554  007572  EC15  F02B         	call	_lcdCommand
  2555  007576                     
  2556                           ;C:/Users/bruno/OneDrive/Documentos/ProgramacaoEmbarcada/projeto_final.X/main.c: 298:   
      +                                            for (i = 0; i < 16; i++) {
  2557  007576  0E00               	movlw	0
  2558  007578  6E42               	movwf	(_i+1)^0,c
  2559  00757A  0E00               	movlw	0
  2560  00757C  6E41               	movwf	_i^0,c
  2561  00757E                     l4624:
  2562                           
  2563                           ;C:/Users/bruno/OneDrive/Documentos/ProgramacaoEmbarcada/projeto_final.X/main.c: 299:   
      +                                                lcdData(msg_luzes[1][i]);
  2564  00757E  0ED0               	movlw	low (_msg_luzes+16)
  2565  007580  2441               	addwf	_i^0,w,c
  2566  007582  6ED9               	movwf	fsr2l,c
  2567  007584  0E00               	movlw	high (_msg_luzes+16)
  2568  007586  2042               	addwfc	(_i+1)^0,w,c
  2569  007588  6EDA               	movwf	fsr2h,c
  2570  00758A  50DF               	movf	indf2,w,c
  2571  00758C  EC77  F029         	call	_lcdData
  2572  007590                     
  2573                           ;C:/Users/bruno/OneDrive/Documentos/ProgramacaoEmbarcada/projeto_final.X/main.c: 300:   
      +                                            }
  2574  007590  4A41               	infsnz	_i^0,f,c
  2575  007592  2A42               	incf	(_i+1)^0,f,c
  2576  007594  5042               	movf	(_i+1)^0,w,c
  2577  007596  E109               	bnz	u4220
  2578  007598  0E10               	movlw	16
  2579  00759A  5C41               	subwf	_i^0,w,c
  2580  00759C  A0D8               	btfss	status,0,c
  2581  00759E  EFD3  F03A         	goto	u4221
  2582  0075A2  EFD5  F03A         	goto	u4220
  2583  0075A6                     u4221:
  2584  0075A6  EFBF  F03A         	goto	l4624
  2585  0075AA                     u4220:
  2586  0075AA                     
  2587                           ;C:/Users/bruno/OneDrive/Documentos/ProgramacaoEmbarcada/projeto_final.X/main.c: 303:   
      +                                            lcdCommand(0xD0);
  2588  0075AA  0ED0               	movlw	208
  2589  0075AC  EC15  F02B         	call	_lcdCommand
  2590  0075B0                     
  2591                           ;C:/Users/bruno/OneDrive/Documentos/ProgramacaoEmbarcada/projeto_final.X/main.c: 304:   
      +                                            for (i = 0; i < 16; i++) {
  2592  0075B0  0E00               	movlw	0
  2593  0075B2  6E42               	movwf	(_i+1)^0,c
  2594  0075B4  0E00               	movlw	0
  2595  0075B6  6E41               	movwf	_i^0,c
  2596  0075B8                     l4638:
  2597                           
  2598                           ;C:/Users/bruno/OneDrive/Documentos/ProgramacaoEmbarcada/projeto_final.X/main.c: 305:   
      +                                                lcdData(msg_luzes[2][i]);
  2599  0075B8  0EE0               	movlw	low (_msg_luzes+32)
  2600  0075BA  2441               	addwf	_i^0,w,c
  2601  0075BC  6ED9               	movwf	fsr2l,c
  2602  0075BE  0E00               	movlw	high (_msg_luzes+32)
  2603  0075C0  2042               	addwfc	(_i+1)^0,w,c
  2604  0075C2  6EDA               	movwf	fsr2h,c
  2605  0075C4  50DF               	movf	indf2,w,c
  2606  0075C6  EC77  F029         	call	_lcdData
  2607  0075CA                     
  2608                           ;C:/Users/bruno/OneDrive/Documentos/ProgramacaoEmbarcada/projeto_final.X/main.c: 306:   
      +                                            }
  2609  0075CA  4A41               	infsnz	_i^0,f,c
  2610  0075CC  2A42               	incf	(_i+1)^0,f,c
  2611  0075CE  5042               	movf	(_i+1)^0,w,c
  2612  0075D0  E109               	bnz	u4230
  2613  0075D2  0E10               	movlw	16
  2614  0075D4  5C41               	subwf	_i^0,w,c
  2615  0075D6  A0D8               	btfss	status,0,c
  2616  0075D8  EFF0  F03A         	goto	u4231
  2617  0075DC  EFF2  F03A         	goto	u4230
  2618  0075E0                     u4231:
  2619  0075E0  EFDC  F03A         	goto	l4638
  2620  0075E4                     u4230:
  2621  0075E4                     l4644:
  2622                           
  2623                           ;C:/Users/bruno/OneDrive/Documentos/ProgramacaoEmbarcada/projeto_final.X/main.c: 309:   
      +                                                kpDebounce();
  2624  0075E4  EC2E  F02E         	call	_kpDebounce	;wreg free
  2625  0075E8                     
  2626                           ;C:/Users/bruno/OneDrive/Documentos/ProgramacaoEmbarcada/projeto_final.X/main.c: 310:   
      +                                                if (kpRead() != tecla) {
  2627  0075E8  EC16  F029         	call	_kpRead	;wreg free
  2628  0075EC  5076               	movf	_tecla^0,w,c
  2629  0075EE  184A               	xorwf	?_kpRead^0,w,c
  2630  0075F0  E109               	bnz	u4240
  2631  0075F2  5077               	movf	(_tecla+1)^0,w,c
  2632  0075F4  184B               	xorwf	(?_kpRead+1)^0,w,c
  2633  0075F6  B4D8               	btfsc	status,2,c
  2634  0075F8  EF00  F03B         	goto	u4241
  2635  0075FC  EF02  F03B         	goto	u4240
  2636  007600                     u4241:
  2637  007600  EFF2  F03A         	goto	l4644
  2638  007604                     u4240:
  2639  007604                     
  2640                           ;C:/Users/bruno/OneDrive/Documentos/ProgramacaoEmbarcada/projeto_final.X/main.c: 311:   
      +                                                    tecla = kpRead();
  2641  007604  EC16  F029         	call	_kpRead	;wreg free
  2642  007608  C04A  F076         	movff	?_kpRead,_tecla
  2643  00760C  C04B  F077         	movff	?_kpRead+1,_tecla+1
  2644  007610                     
  2645                           ;C:/Users/bruno/OneDrive/Documentos/ProgramacaoEmbarcada/projeto_final.X/main.c: 314:   
      +                                                    if (((tecla) & (1<<(3)))) {
  2646  007610  A676               	btfss	_tecla^0,3,c
  2647  007612  EF0D  F03B         	goto	u4251
  2648  007616  EF0F  F03B         	goto	u4250
  2649  00761A                     u4251:
  2650  00761A  EF42  F03B         	goto	l399
  2651  00761E                     u4250:
  2652  00761E                     
  2653                           ;C:/Users/bruno/OneDrive/Documentos/ProgramacaoEmbarcada/projeto_final.X/main.c: 315:   
      +                                                        if (msg_luzes[0][8] == 'F') {
  2654  00761E  0E46               	movlw	70
  2655  007620  0100               	movlb	0	; () banked
  2656  007622  19C8               	xorwf	(_msg_luzes+8)& (0+255),w,b
  2657  007624  A4D8               	btfss	status,2,c
  2658  007626  EF17  F03B         	goto	u4261
  2659  00762A  EF19  F03B         	goto	u4260
  2660  00762E                     u4261:
  2661  00762E  EF1F  F03B         	goto	l4656
  2662  007632                     u4260:
  2663  007632                     
  2664                           ; BSR set to: 0
  2665                           ;C:/Users/bruno/OneDrive/Documentos/ProgramacaoEmbarcada/projeto_final.X/main.c: 316:   
      +                                                            msg_luzes[0][8] = 'N';
  2666  007632  0E4E               	movlw	78
  2667  007634  6FC8               	movwf	(_msg_luzes+8)& (0+255),b
  2668                           
  2669                           ;C:/Users/bruno/OneDrive/Documentos/ProgramacaoEmbarcada/projeto_final.X/main.c: 317:   
      +                                                            msg_luzes[0][9] = ' ';
  2670  007636  0E20               	movlw	32
  2671  007638  6FC9               	movwf	(_msg_luzes+9)& (0+255),b
  2672                           
  2673                           ;C:/Users/bruno/OneDrive/Documentos/ProgramacaoEmbarcada/projeto_final.X/main.c: 318:   
      +                                                        } else {
  2674  00763A  EF23  F03B         	goto	l4658
  2675  00763E                     l4656:
  2676                           
  2677                           ; BSR set to: 0
  2678                           ;C:/Users/bruno/OneDrive/Documentos/ProgramacaoEmbarcada/projeto_final.X/main.c: 319:   
      +                                                            msg_luzes[0][8] = 'F';
  2679  00763E  0E46               	movlw	70
  2680  007640  6FC8               	movwf	(_msg_luzes+8)& (0+255),b
  2681                           
  2682                           ;C:/Users/bruno/OneDrive/Documentos/ProgramacaoEmbarcada/projeto_final.X/main.c: 320:   
      +                                                            msg_luzes[0][9] = 'F';
  2683  007642  0E46               	movlw	70
  2684  007644  6FC9               	movwf	(_msg_luzes+9)& (0+255),b
  2685  007646                     l4658:
  2686                           
  2687                           ; BSR set to: 0
  2688                           ;C:/Users/bruno/OneDrive/Documentos/ProgramacaoEmbarcada/projeto_final.X/main.c: 324:   
      +                                                        lcdCommand(0x80);
  2689  007646  0E80               	movlw	128
  2690  007648  EC15  F02B         	call	_lcdCommand
  2691  00764C                     
  2692                           ;C:/Users/bruno/OneDrive/Documentos/ProgramacaoEmbarcada/projeto_final.X/main.c: 325:   
      +                                                        for (i = 0; i < 16; i++) {
  2693  00764C  0E00               	movlw	0
  2694  00764E  6E42               	movwf	(_i+1)^0,c
  2695  007650  0E00               	movlw	0
  2696  007652  6E41               	movwf	_i^0,c
  2697  007654                     l4666:
  2698                           
  2699                           ;C:/Users/bruno/OneDrive/Documentos/ProgramacaoEmbarcada/projeto_final.X/main.c: 326:   
      +                                                            lcdData(msg_luzes[0][i]);
  2700  007654  0EC0               	movlw	low _msg_luzes
  2701  007656  2441               	addwf	_i^0,w,c
  2702  007658  6ED9               	movwf	fsr2l,c
  2703  00765A  0E00               	movlw	high _msg_luzes
  2704  00765C  2042               	addwfc	(_i+1)^0,w,c
  2705  00765E  6EDA               	movwf	fsr2h,c
  2706  007660  50DF               	movf	indf2,w,c
  2707  007662  EC77  F029         	call	_lcdData
  2708  007666                     
  2709                           ;C:/Users/bruno/OneDrive/Documentos/ProgramacaoEmbarcada/projeto_final.X/main.c: 327:   
      +                                                        }
  2710  007666  4A41               	infsnz	_i^0,f,c
  2711  007668  2A42               	incf	(_i+1)^0,f,c
  2712  00766A  5042               	movf	(_i+1)^0,w,c
  2713  00766C  E109               	bnz	u4270
  2714  00766E  0E10               	movlw	16
  2715  007670  5C41               	subwf	_i^0,w,c
  2716  007672  A0D8               	btfss	status,0,c
  2717  007674  EF3E  F03B         	goto	u4271
  2718  007678  EF40  F03B         	goto	u4270
  2719  00767C                     u4271:
  2720  00767C  EF2A  F03B         	goto	l4666
  2721  007680                     u4270:
  2722  007680  EFF2  F03A         	goto	l4644
  2723  007684                     l399:
  2724  007684  A076               	btfss	_tecla^0,0,c
  2725  007686  EF47  F03B         	goto	u4281
  2726  00768A  EF49  F03B         	goto	u4280
  2727  00768E                     u4281:
  2728  00768E  EFF2  F03A         	goto	l4644
  2729  007692                     u4280:
  2730  007692  EFF3  F039         	goto	l4526
  2731  007696                     l388:
  2732  007696  AE76               	btfss	_tecla^0,7,c
  2733  007698  EF50  F03B         	goto	u4291
  2734  00769C  EF52  F03B         	goto	u4290
  2735  0076A0                     u4291:
  2736  0076A0  EFE3  F03D         	goto	l408
  2737  0076A4                     u4290:
  2738  0076A4                     l4674:
  2739                           
  2740                           ;C:/Users/bruno/OneDrive/Documentos/ProgramacaoEmbarcada/projeto_final.X/main.c: 337:   
      +                                                lcdCommand(0x80);
  2741  0076A4  0E80               	movlw	128
  2742  0076A6  EC15  F02B         	call	_lcdCommand
  2743  0076AA                     
  2744                           ;C:/Users/bruno/OneDrive/Documentos/ProgramacaoEmbarcada/projeto_final.X/main.c: 338:   
      +                                                for (i = 0; i < 16; i++) {
  2745  0076AA  0E00               	movlw	0
  2746  0076AC  6E42               	movwf	(_i+1)^0,c
  2747  0076AE  0E00               	movlw	0
  2748  0076B0  6E41               	movwf	_i^0,c
  2749  0076B2                     l4682:
  2750                           
  2751                           ;C:/Users/bruno/OneDrive/Documentos/ProgramacaoEmbarcada/projeto_final.X/main.c: 339:   
      +                                                    lcdData(msg_senha[0][i]);
  2752  0076B2  0E80               	movlw	low _msg_senha
  2753  0076B4  2441               	addwf	_i^0,w,c
  2754  0076B6  6ED9               	movwf	fsr2l,c
  2755  0076B8  0E00               	movlw	high _msg_senha
  2756  0076BA  2042               	addwfc	(_i+1)^0,w,c
  2757  0076BC  6EDA               	movwf	fsr2h,c
  2758  0076BE  50DF               	movf	indf2,w,c
  2759  0076C0  EC77  F029         	call	_lcdData
  2760  0076C4                     
  2761                           ;C:/Users/bruno/OneDrive/Documentos/ProgramacaoEmbarcada/projeto_final.X/main.c: 340:   
      +                                                }
  2762  0076C4  4A41               	infsnz	_i^0,f,c
  2763  0076C6  2A42               	incf	(_i+1)^0,f,c
  2764  0076C8  5042               	movf	(_i+1)^0,w,c
  2765  0076CA  E109               	bnz	u4300
  2766  0076CC  0E10               	movlw	16
  2767  0076CE  5C41               	subwf	_i^0,w,c
  2768  0076D0  A0D8               	btfss	status,0,c
  2769  0076D2  EF6D  F03B         	goto	u4301
  2770  0076D6  EF6F  F03B         	goto	u4300
  2771  0076DA                     u4301:
  2772  0076DA  EF59  F03B         	goto	l4682
  2773  0076DE                     u4300:
  2774  0076DE                     
  2775                           ;C:/Users/bruno/OneDrive/Documentos/ProgramacaoEmbarcada/projeto_final.X/main.c: 343:   
      +                                                lcdCommand(0xC0);
  2776  0076DE  0EC0               	movlw	192
  2777  0076E0  EC15  F02B         	call	_lcdCommand
  2778  0076E4                     
  2779                           ;C:/Users/bruno/OneDrive/Documentos/ProgramacaoEmbarcada/projeto_final.X/main.c: 344:   
      +                                                for (i = 0; i < 16; i++) {
  2780  0076E4  0E00               	movlw	0
  2781  0076E6  6E42               	movwf	(_i+1)^0,c
  2782  0076E8  0E00               	movlw	0
  2783  0076EA  6E41               	movwf	_i^0,c
  2784  0076EC                     l4696:
  2785                           
  2786                           ;C:/Users/bruno/OneDrive/Documentos/ProgramacaoEmbarcada/projeto_final.X/main.c: 345:   
      +                                                    lcdData(msg_senha[1][i]);
  2787  0076EC  0E90               	movlw	low (_msg_senha+16)
  2788  0076EE  2441               	addwf	_i^0,w,c
  2789  0076F0  6ED9               	movwf	fsr2l,c
  2790  0076F2  0E00               	movlw	high (_msg_senha+16)
  2791  0076F4  2042               	addwfc	(_i+1)^0,w,c
  2792  0076F6  6EDA               	movwf	fsr2h,c
  2793  0076F8  50DF               	movf	indf2,w,c
  2794  0076FA  EC77  F029         	call	_lcdData
  2795  0076FE                     
  2796                           ;C:/Users/bruno/OneDrive/Documentos/ProgramacaoEmbarcada/projeto_final.X/main.c: 346:   
      +                                                }
  2797  0076FE  4A41               	infsnz	_i^0,f,c
  2798  007700  2A42               	incf	(_i+1)^0,f,c
  2799  007702  5042               	movf	(_i+1)^0,w,c
  2800  007704  E109               	bnz	u4310
  2801  007706  0E10               	movlw	16
  2802  007708  5C41               	subwf	_i^0,w,c
  2803  00770A  A0D8               	btfss	status,0,c
  2804  00770C  EF8A  F03B         	goto	u4311
  2805  007710  EF8C  F03B         	goto	u4310
  2806  007714                     u4311:
  2807  007714  EF76  F03B         	goto	l4696
  2808  007718                     u4310:
  2809  007718                     
  2810                           ;C:/Users/bruno/OneDrive/Documentos/ProgramacaoEmbarcada/projeto_final.X/main.c: 349:   
      +                                                lcdCommand(0x90);
  2811  007718  0E90               	movlw	144
  2812  00771A  EC15  F02B         	call	_lcdCommand
  2813  00771E                     
  2814                           ;C:/Users/bruno/OneDrive/Documentos/ProgramacaoEmbarcada/projeto_final.X/main.c: 350:   
      +                                                for (i = 0; i < 16; i++) {
  2815  00771E  0E00               	movlw	0
  2816  007720  6E42               	movwf	(_i+1)^0,c
  2817  007722  0E00               	movlw	0
  2818  007724  6E41               	movwf	_i^0,c
  2819  007726                     l4710:
  2820                           
  2821                           ;C:/Users/bruno/OneDrive/Documentos/ProgramacaoEmbarcada/projeto_final.X/main.c: 351:   
      +                                                    lcdData(msg_senha[2][i]);
  2822  007726  0EA0               	movlw	low (_msg_senha+32)
  2823  007728  2441               	addwf	_i^0,w,c
  2824  00772A  6ED9               	movwf	fsr2l,c
  2825  00772C  0E00               	movlw	high (_msg_senha+32)
  2826  00772E  2042               	addwfc	(_i+1)^0,w,c
  2827  007730  6EDA               	movwf	fsr2h,c
  2828  007732  50DF               	movf	indf2,w,c
  2829  007734  EC77  F029         	call	_lcdData
  2830  007738                     
  2831                           ;C:/Users/bruno/OneDrive/Documentos/ProgramacaoEmbarcada/projeto_final.X/main.c: 352:   
      +                                                }
  2832  007738  4A41               	infsnz	_i^0,f,c
  2833  00773A  2A42               	incf	(_i+1)^0,f,c
  2834  00773C  5042               	movf	(_i+1)^0,w,c
  2835  00773E  E109               	bnz	u4320
  2836  007740  0E10               	movlw	16
  2837  007742  5C41               	subwf	_i^0,w,c
  2838  007744  A0D8               	btfss	status,0,c
  2839  007746  EFA7  F03B         	goto	u4321
  2840  00774A  EFA9  F03B         	goto	u4320
  2841  00774E                     u4321:
  2842  00774E  EF93  F03B         	goto	l4710
  2843  007752                     u4320:
  2844  007752                     
  2845                           ;C:/Users/bruno/OneDrive/Documentos/ProgramacaoEmbarcada/projeto_final.X/main.c: 355:   
      +                                                lcdCommand(0xD0);
  2846  007752  0ED0               	movlw	208
  2847  007754  EC15  F02B         	call	_lcdCommand
  2848  007758                     
  2849                           ;C:/Users/bruno/OneDrive/Documentos/ProgramacaoEmbarcada/projeto_final.X/main.c: 356:   
      +                                                for (i = 0; i < 16; i++) {
  2850  007758  0E00               	movlw	0
  2851  00775A  6E42               	movwf	(_i+1)^0,c
  2852  00775C  0E00               	movlw	0
  2853  00775E  6E41               	movwf	_i^0,c
  2854  007760                     l4724:
  2855                           
  2856                           ;C:/Users/bruno/OneDrive/Documentos/ProgramacaoEmbarcada/projeto_final.X/main.c: 357:   
      +                                                    lcdData(msg_senha[3][i]);
  2857  007760  0EB0               	movlw	low (_msg_senha+48)
  2858  007762  2441               	addwf	_i^0,w,c
  2859  007764  6ED9               	movwf	fsr2l,c
  2860  007766  0E00               	movlw	high (_msg_senha+48)
  2861  007768  2042               	addwfc	(_i+1)^0,w,c
  2862  00776A  6EDA               	movwf	fsr2h,c
  2863  00776C  50DF               	movf	indf2,w,c
  2864  00776E  EC77  F029         	call	_lcdData
  2865  007772                     
  2866                           ;C:/Users/bruno/OneDrive/Documentos/ProgramacaoEmbarcada/projeto_final.X/main.c: 358:   
      +                                                }
  2867  007772  4A41               	infsnz	_i^0,f,c
  2868  007774  2A42               	incf	(_i+1)^0,f,c
  2869  007776  5042               	movf	(_i+1)^0,w,c
  2870  007778  E109               	bnz	u4330
  2871  00777A  0E10               	movlw	16
  2872  00777C  5C41               	subwf	_i^0,w,c
  2873  00777E  A0D8               	btfss	status,0,c
  2874  007780  EFC4  F03B         	goto	u4331
  2875  007784  EFC6  F03B         	goto	u4330
  2876  007788                     u4331:
  2877  007788  EFB0  F03B         	goto	l4724
  2878  00778C                     u4330:
  2879  00778C                     l4730:
  2880                           
  2881                           ;C:/Users/bruno/OneDrive/Documentos/ProgramacaoEmbarcada/projeto_final.X/main.c: 361:   
      +                                                    kpDebounce();
  2882  00778C  EC2E  F02E         	call	_kpDebounce	;wreg free
  2883  007790                     
  2884                           ;C:/Users/bruno/OneDrive/Documentos/ProgramacaoEmbarcada/projeto_final.X/main.c: 362:   
      +                                                    if (kpRead() != tecla) {
  2885  007790  EC16  F029         	call	_kpRead	;wreg free
  2886  007794  5076               	movf	_tecla^0,w,c
  2887  007796  184A               	xorwf	?_kpRead^0,w,c
  2888  007798  E109               	bnz	u4340
  2889  00779A  5077               	movf	(_tecla+1)^0,w,c
  2890  00779C  184B               	xorwf	(?_kpRead+1)^0,w,c
  2891  00779E  B4D8               	btfsc	status,2,c
  2892  0077A0  EFD4  F03B         	goto	u4341
  2893  0077A4  EFD6  F03B         	goto	u4340
  2894  0077A8                     u4341:
  2895  0077A8  EFC6  F03B         	goto	l4730
  2896  0077AC                     u4340:
  2897  0077AC                     
  2898                           ;C:/Users/bruno/OneDrive/Documentos/ProgramacaoEmbarcada/projeto_final.X/main.c: 363:   
      +                                                        tecla = kpRead();
  2899  0077AC  EC16  F029         	call	_kpRead	;wreg free
  2900  0077B0  C04A  F076         	movff	?_kpRead,_tecla
  2901  0077B4  C04B  F077         	movff	?_kpRead+1,_tecla+1
  2902  0077B8                     
  2903                           ;C:/Users/bruno/OneDrive/Documentos/ProgramacaoEmbarcada/projeto_final.X/main.c: 368:   
      +                                                if (((tecla) & (1<<(3)))) {
  2904  0077B8  A676               	btfss	_tecla^0,3,c
  2905  0077BA  EFE1  F03B         	goto	u4351
  2906  0077BE  EFE3  F03B         	goto	u4350
  2907  0077C2                     u4351:
  2908  0077C2  EF16  F03C         	goto	l421
  2909  0077C6                     u4350:
  2910  0077C6                     
  2911                           ;C:/Users/bruno/OneDrive/Documentos/ProgramacaoEmbarcada/projeto_final.X/main.c: 369:   
      +                                                    if (msg_senha[0][8] == 'F') {
  2912  0077C6  0E46               	movlw	70
  2913  0077C8  0100               	movlb	0	; () banked
  2914  0077CA  1988               	xorwf	(_msg_senha+8)& (0+255),w,b
  2915  0077CC  A4D8               	btfss	status,2,c
  2916  0077CE  EFEB  F03B         	goto	u4361
  2917  0077D2  EFED  F03B         	goto	u4360
  2918  0077D6                     u4361:
  2919  0077D6  EFF3  F03B         	goto	l4740
  2920  0077DA                     u4360:
  2921  0077DA                     
  2922                           ; BSR set to: 0
  2923                           ;C:/Users/bruno/OneDrive/Documentos/ProgramacaoEmbarcada/projeto_final.X/main.c: 370:   
      +                                                        msg_senha[0][8] = 'N';
  2924  0077DA  0E4E               	movlw	78
  2925  0077DC  6F88               	movwf	(_msg_senha+8)& (0+255),b
  2926                           
  2927                           ;C:/Users/bruno/OneDrive/Documentos/ProgramacaoEmbarcada/projeto_final.X/main.c: 371:   
      +                                                        msg_senha[0][9] = ' ';
  2928  0077DE  0E20               	movlw	32
  2929  0077E0  6F89               	movwf	(_msg_senha+9)& (0+255),b
  2930                           
  2931                           ;C:/Users/bruno/OneDrive/Documentos/ProgramacaoEmbarcada/projeto_final.X/main.c: 372:   
      +                                                    } else {
  2932  0077E2  EFF7  F03B         	goto	l4742
  2933  0077E6                     l4740:
  2934                           
  2935                           ; BSR set to: 0
  2936                           ;C:/Users/bruno/OneDrive/Documentos/ProgramacaoEmbarcada/projeto_final.X/main.c: 373:   
      +                                                        msg_senha[0][8] = 'F';
  2937  0077E6  0E46               	movlw	70
  2938  0077E8  6F88               	movwf	(_msg_senha+8)& (0+255),b
  2939                           
  2940                           ;C:/Users/bruno/OneDrive/Documentos/ProgramacaoEmbarcada/projeto_final.X/main.c: 374:   
      +                                                        msg_senha[0][9] = 'F';
  2941  0077EA  0E46               	movlw	70
  2942  0077EC  6F89               	movwf	(_msg_senha+9)& (0+255),b
  2943  0077EE                     l4742:
  2944                           
  2945                           ; BSR set to: 0
  2946                           ;C:/Users/bruno/OneDrive/Documentos/ProgramacaoEmbarcada/projeto_final.X/main.c: 378:   
      +                                                    lcdCommand(0x80);
  2947  0077EE  0E80               	movlw	128
  2948  0077F0  EC15  F02B         	call	_lcdCommand
  2949  0077F4                     
  2950                           ;C:/Users/bruno/OneDrive/Documentos/ProgramacaoEmbarcada/projeto_final.X/main.c: 379:   
      +                                                    for (i = 0; i < 16; i++) {
  2951  0077F4  0E00               	movlw	0
  2952  0077F6  6E42               	movwf	(_i+1)^0,c
  2953  0077F8  0E00               	movlw	0
  2954  0077FA  6E41               	movwf	_i^0,c
  2955  0077FC                     l4750:
  2956                           
  2957                           ;C:/Users/bruno/OneDrive/Documentos/ProgramacaoEmbarcada/projeto_final.X/main.c: 380:   
      +                                                        lcdData(msg_senha[0][i]);
  2958  0077FC  0E80               	movlw	low _msg_senha
  2959  0077FE  2441               	addwf	_i^0,w,c
  2960  007800  6ED9               	movwf	fsr2l,c
  2961  007802  0E00               	movlw	high _msg_senha
  2962  007804  2042               	addwfc	(_i+1)^0,w,c
  2963  007806  6EDA               	movwf	fsr2h,c
  2964  007808  50DF               	movf	indf2,w,c
  2965  00780A  EC77  F029         	call	_lcdData
  2966  00780E                     
  2967                           ;C:/Users/bruno/OneDrive/Documentos/ProgramacaoEmbarcada/projeto_final.X/main.c: 381:   
      +                                                    }
  2968  00780E  4A41               	infsnz	_i^0,f,c
  2969  007810  2A42               	incf	(_i+1)^0,f,c
  2970  007812  5042               	movf	(_i+1)^0,w,c
  2971  007814  E109               	bnz	u4370
  2972  007816  0E10               	movlw	16
  2973  007818  5C41               	subwf	_i^0,w,c
  2974  00781A  A0D8               	btfss	status,0,c
  2975  00781C  EF12  F03C         	goto	u4371
  2976  007820  EF14  F03C         	goto	u4370
  2977  007824                     u4371:
  2978  007824  EFFE  F03B         	goto	l4750
  2979  007828                     u4370:
  2980  007828  EF52  F03B         	goto	l4674
  2981  00782C                     l421:
  2982  00782C  AE76               	btfss	_tecla^0,7,c
  2983  00782E  EF1B  F03C         	goto	u4381
  2984  007832  EF1D  F03C         	goto	u4380
  2985  007836                     u4381:
  2986  007836  EFDA  F03D         	goto	l427
  2987  00783A                     u4380:
  2988  00783A                     
  2989                           ;C:/Users/bruno/OneDrive/Documentos/ProgramacaoEmbarcada/projeto_final.X/main.c: 384:   
      +                                                    lcdCommand(0x80);
  2990  00783A  0E80               	movlw	128
  2991  00783C  EC15  F02B         	call	_lcdCommand
  2992  007840                     
  2993                           ;C:/Users/bruno/OneDrive/Documentos/ProgramacaoEmbarcada/projeto_final.X/main.c: 385:   
      +                                                    for (i = 0; i < 7; i++) {
  2994  007840  0E00               	movlw	0
  2995  007842  6E42               	movwf	(_i+1)^0,c
  2996  007844  0E00               	movlw	0
  2997  007846  6E41               	movwf	_i^0,c
  2998  007848                     l4764:
  2999                           
  3000                           ;C:/Users/bruno/OneDrive/Documentos/ProgramacaoEmbarcada/projeto_final.X/main.c: 386:   
      +                                                        lcdData(msg_alt_senha[0][i]);
  3001  007848  0EB0               	movlw	low _msg_alt_senha
  3002  00784A  2441               	addwf	_i^0,w,c
  3003  00784C  6ED9               	movwf	fsr2l,c
  3004  00784E  0E02               	movlw	high _msg_alt_senha
  3005  007850  2042               	addwfc	(_i+1)^0,w,c
  3006  007852  6EDA               	movwf	fsr2h,c
  3007  007854  50DF               	movf	indf2,w,c
  3008  007856  EC77  F029         	call	_lcdData
  3009  00785A                     
  3010                           ;C:/Users/bruno/OneDrive/Documentos/ProgramacaoEmbarcada/projeto_final.X/main.c: 387:   
      +                                                    }
  3011  00785A  4A41               	infsnz	_i^0,f,c
  3012  00785C  2A42               	incf	(_i+1)^0,f,c
  3013  00785E  5042               	movf	(_i+1)^0,w,c
  3014  007860  E109               	bnz	u4390
  3015  007862  0E07               	movlw	7
  3016  007864  5C41               	subwf	_i^0,w,c
  3017  007866  A0D8               	btfss	status,0,c
  3018  007868  EF38  F03C         	goto	u4391
  3019  00786C  EF3A  F03C         	goto	u4390
  3020  007870                     u4391:
  3021  007870  EF24  F03C         	goto	l4764
  3022  007874                     u4390:
  3023  007874                     
  3024                           ;C:/Users/bruno/OneDrive/Documentos/ProgramacaoEmbarcada/projeto_final.X/main.c: 390:   
      +                                                    for (i = 0; i < 4; i++) {
  3025  007874  0E00               	movlw	0
  3026  007876  6E42               	movwf	(_i+1)^0,c
  3027  007878  0E00               	movlw	0
  3028  00787A  6E41               	movwf	_i^0,c
  3029  00787C                     l4776:
  3030                           
  3031                           ;C:/Users/bruno/OneDrive/Documentos/ProgramacaoEmbarcada/projeto_final.X/main.c: 391:   
      +                                                        lcdData(senha[i]);
  3032  00787C  0E29               	movlw	low _senha
  3033  00787E  2441               	addwf	_i^0,w,c
  3034  007880  6ED9               	movwf	fsr2l,c
  3035  007882  0E00               	movlw	high _senha
  3036  007884  2042               	addwfc	(_i+1)^0,w,c
  3037  007886  6EDA               	movwf	fsr2h,c
  3038  007888  50DF               	movf	indf2,w,c
  3039  00788A  EC77  F029         	call	_lcdData
  3040  00788E                     
  3041                           ;C:/Users/bruno/OneDrive/Documentos/ProgramacaoEmbarcada/projeto_final.X/main.c: 392:   
      +                                                    }
  3042  00788E  4A41               	infsnz	_i^0,f,c
  3043  007890  2A42               	incf	(_i+1)^0,f,c
  3044  007892  5042               	movf	(_i+1)^0,w,c
  3045  007894  E109               	bnz	u4400
  3046  007896  0E04               	movlw	4
  3047  007898  5C41               	subwf	_i^0,w,c
  3048  00789A  A0D8               	btfss	status,0,c
  3049  00789C  EF52  F03C         	goto	u4401
  3050  0078A0  EF54  F03C         	goto	u4400
  3051  0078A4                     u4401:
  3052  0078A4  EF3E  F03C         	goto	l4776
  3053  0078A8                     u4400:
  3054  0078A8                     
  3055                           ;C:/Users/bruno/OneDrive/Documentos/ProgramacaoEmbarcada/projeto_final.X/main.c: 395:   
      +                                                    lcdCommand(0xC0);
  3056  0078A8  0EC0               	movlw	192
  3057  0078AA  EC15  F02B         	call	_lcdCommand
  3058  0078AE                     
  3059                           ;C:/Users/bruno/OneDrive/Documentos/ProgramacaoEmbarcada/projeto_final.X/main.c: 396:   
      +                                                    for (i = 0; i < 16; i++) {
  3060  0078AE  0E00               	movlw	0
  3061  0078B0  6E42               	movwf	(_i+1)^0,c
  3062  0078B2  0E00               	movlw	0
  3063  0078B4  6E41               	movwf	_i^0,c
  3064  0078B6                     l4790:
  3065                           
  3066                           ;C:/Users/bruno/OneDrive/Documentos/ProgramacaoEmbarcada/projeto_final.X/main.c: 397:   
      +                                                        lcdData(msg_alt_senha[1][i]);
  3067  0078B6  0EC0               	movlw	low (_msg_alt_senha+16)
  3068  0078B8  2441               	addwf	_i^0,w,c
  3069  0078BA  6ED9               	movwf	fsr2l,c
  3070  0078BC  0E02               	movlw	high (_msg_alt_senha+16)
  3071  0078BE  2042               	addwfc	(_i+1)^0,w,c
  3072  0078C0  6EDA               	movwf	fsr2h,c
  3073  0078C2  50DF               	movf	indf2,w,c
  3074  0078C4  EC77  F029         	call	_lcdData
  3075  0078C8                     
  3076                           ;C:/Users/bruno/OneDrive/Documentos/ProgramacaoEmbarcada/projeto_final.X/main.c: 398:   
      +                                                    }
  3077  0078C8  4A41               	infsnz	_i^0,f,c
  3078  0078CA  2A42               	incf	(_i+1)^0,f,c
  3079  0078CC  5042               	movf	(_i+1)^0,w,c
  3080  0078CE  E109               	bnz	u4410
  3081  0078D0  0E10               	movlw	16
  3082  0078D2  5C41               	subwf	_i^0,w,c
  3083  0078D4  A0D8               	btfss	status,0,c
  3084  0078D6  EF6F  F03C         	goto	u4411
  3085  0078DA  EF71  F03C         	goto	u4410
  3086  0078DE                     u4411:
  3087  0078DE  EF5B  F03C         	goto	l4790
  3088  0078E2                     u4410:
  3089  0078E2                     
  3090                           ;C:/Users/bruno/OneDrive/Documentos/ProgramacaoEmbarcada/projeto_final.X/main.c: 401:   
      +                                                    lcdCommand(0x90);
  3091  0078E2  0E90               	movlw	144
  3092  0078E4  EC15  F02B         	call	_lcdCommand
  3093  0078E8                     
  3094                           ;C:/Users/bruno/OneDrive/Documentos/ProgramacaoEmbarcada/projeto_final.X/main.c: 402:   
      +                                                    for (i = 0; i < 16; i++) {
  3095  0078E8  0E00               	movlw	0
  3096  0078EA  6E42               	movwf	(_i+1)^0,c
  3097  0078EC  0E00               	movlw	0
  3098  0078EE  6E41               	movwf	_i^0,c
  3099  0078F0                     l4804:
  3100                           
  3101                           ;C:/Users/bruno/OneDrive/Documentos/ProgramacaoEmbarcada/projeto_final.X/main.c: 403:   
      +                                                        lcdData(msg_alt_senha[2][i]);
  3102  0078F0  0ED0               	movlw	low (_msg_alt_senha+32)
  3103  0078F2  2441               	addwf	_i^0,w,c
  3104  0078F4  6ED9               	movwf	fsr2l,c
  3105  0078F6  0E02               	movlw	high (_msg_alt_senha+32)
  3106  0078F8  2042               	addwfc	(_i+1)^0,w,c
  3107  0078FA  6EDA               	movwf	fsr2h,c
  3108  0078FC  50DF               	movf	indf2,w,c
  3109  0078FE  EC77  F029         	call	_lcdData
  3110  007902                     
  3111                           ;C:/Users/bruno/OneDrive/Documentos/ProgramacaoEmbarcada/projeto_final.X/main.c: 404:   
      +                                                    }
  3112  007902  4A41               	infsnz	_i^0,f,c
  3113  007904  2A42               	incf	(_i+1)^0,f,c
  3114  007906  5042               	movf	(_i+1)^0,w,c
  3115  007908  E109               	bnz	u4420
  3116  00790A  0E10               	movlw	16
  3117  00790C  5C41               	subwf	_i^0,w,c
  3118  00790E  A0D8               	btfss	status,0,c
  3119  007910  EF8C  F03C         	goto	u4421
  3120  007914  EF8E  F03C         	goto	u4420
  3121  007918                     u4421:
  3122  007918  EF78  F03C         	goto	l4804
  3123  00791C                     u4420:
  3124  00791C                     
  3125                           ;C:/Users/bruno/OneDrive/Documentos/ProgramacaoEmbarcada/projeto_final.X/main.c: 407:   
      +                                                    lcdCommand(0xD0);
  3126  00791C  0ED0               	movlw	208
  3127  00791E  EC15  F02B         	call	_lcdCommand
  3128  007922                     
  3129                           ;C:/Users/bruno/OneDrive/Documentos/ProgramacaoEmbarcada/projeto_final.X/main.c: 408:   
      +                                                    for (i = 0; i < 16; i++) {
  3130  007922  0E00               	movlw	0
  3131  007924  6E42               	movwf	(_i+1)^0,c
  3132  007926  0E00               	movlw	0
  3133  007928  6E41               	movwf	_i^0,c
  3134  00792A                     l4818:
  3135                           
  3136                           ;C:/Users/bruno/OneDrive/Documentos/ProgramacaoEmbarcada/projeto_final.X/main.c: 409:   
      +                                                        lcdData(msg_alt_senha[3][i]);
  3137  00792A  0EE0               	movlw	low (_msg_alt_senha+48)
  3138  00792C  2441               	addwf	_i^0,w,c
  3139  00792E  6ED9               	movwf	fsr2l,c
  3140  007930  0E02               	movlw	high (_msg_alt_senha+48)
  3141  007932  2042               	addwfc	(_i+1)^0,w,c
  3142  007934  6EDA               	movwf	fsr2h,c
  3143  007936  50DF               	movf	indf2,w,c
  3144  007938  EC77  F029         	call	_lcdData
  3145  00793C                     
  3146                           ;C:/Users/bruno/OneDrive/Documentos/ProgramacaoEmbarcada/projeto_final.X/main.c: 410:   
      +                                                    }
  3147  00793C  4A41               	infsnz	_i^0,f,c
  3148  00793E  2A42               	incf	(_i+1)^0,f,c
  3149  007940  5042               	movf	(_i+1)^0,w,c
  3150  007942  E109               	bnz	u4430
  3151  007944  0E10               	movlw	16
  3152  007946  5C41               	subwf	_i^0,w,c
  3153  007948  A0D8               	btfss	status,0,c
  3154  00794A  EFA9  F03C         	goto	u4431
  3155  00794E  EFAB  F03C         	goto	u4430
  3156  007952                     u4431:
  3157  007952  EF95  F03C         	goto	l4818
  3158  007956                     u4430:
  3159  007956                     
  3160                           ;C:/Users/bruno/OneDrive/Documentos/ProgramacaoEmbarcada/projeto_final.X/main.c: 412:   
      +                                                    pos = 0;
  3161  007956  0E00               	movlw	0
  3162  007958  6E40               	movwf	(_pos+1)^0,c
  3163  00795A  0E00               	movlw	0
  3164  00795C  6E3F               	movwf	_pos^0,c
  3165                           
  3166                           ;C:/Users/bruno/OneDrive/Documentos/ProgramacaoEmbarcada/projeto_final.X/main.c: 413:   
      +                                                    for (i = 0; i < 4; i++) {
  3167  00795E  0E00               	movlw	0
  3168  007960  6E42               	movwf	(_i+1)^0,c
  3169  007962  0E00               	movlw	0
  3170  007964  6E41               	movwf	_i^0,c
  3171  007966                     l4830:
  3172                           
  3173                           ;C:/Users/bruno/OneDrive/Documentos/ProgramacaoEmbarcada/projeto_final.X/main.c: 414:   
      +                                                        aux_senha[i] = ' ';
  3174  007966  0E25               	movlw	low _aux_senha
  3175  007968  2441               	addwf	_i^0,w,c
  3176  00796A  6ED9               	movwf	fsr2l,c
  3177  00796C  0E00               	movlw	high _aux_senha
  3178  00796E  2042               	addwfc	(_i+1)^0,w,c
  3179  007970  6EDA               	movwf	fsr2h,c
  3180  007972  0E20               	movlw	32
  3181  007974  6EDF               	movwf	indf2,c
  3182  007976                     
  3183                           ;C:/Users/bruno/OneDrive/Documentos/ProgramacaoEmbarcada/projeto_final.X/main.c: 415:   
      +                                                    }
  3184  007976  4A41               	infsnz	_i^0,f,c
  3185  007978  2A42               	incf	(_i+1)^0,f,c
  3186  00797A  5042               	movf	(_i+1)^0,w,c
  3187  00797C  E109               	bnz	u4440
  3188  00797E  0E04               	movlw	4
  3189  007980  5C41               	subwf	_i^0,w,c
  3190  007982  A0D8               	btfss	status,0,c
  3191  007984  EFC6  F03C         	goto	u4441
  3192  007988  EFC8  F03C         	goto	u4440
  3193  00798C                     u4441:
  3194  00798C  EFB3  F03C         	goto	l4830
  3195  007990                     u4440:
  3196  007990                     l4836:
  3197                           
  3198                           ;C:/Users/bruno/OneDrive/Documentos/ProgramacaoEmbarcada/projeto_final.X/main.c: 418:   
      +                                                        kpDebounce();
  3199  007990  EC2E  F02E         	call	_kpDebounce	;wreg free
  3200  007994                     
  3201                           ;C:/Users/bruno/OneDrive/Documentos/ProgramacaoEmbarcada/projeto_final.X/main.c: 419:   
      +                                                        if (kpRead() != tecla) {
  3202  007994  EC16  F029         	call	_kpRead	;wreg free
  3203  007998  5076               	movf	_tecla^0,w,c
  3204  00799A  184A               	xorwf	?_kpRead^0,w,c
  3205  00799C  E109               	bnz	u4450
  3206  00799E  5077               	movf	(_tecla+1)^0,w,c
  3207  0079A0  184B               	xorwf	(?_kpRead+1)^0,w,c
  3208  0079A2  B4D8               	btfsc	status,2,c
  3209  0079A4  EFD6  F03C         	goto	u4451
  3210  0079A8  EFD8  F03C         	goto	u4450
  3211  0079AC                     u4451:
  3212  0079AC  EFC8  F03C         	goto	l4836
  3213  0079B0                     u4450:
  3214  0079B0                     
  3215                           ;C:/Users/bruno/OneDrive/Documentos/ProgramacaoEmbarcada/projeto_final.X/main.c: 420:   
      +                                                            tecla = kpRead();
  3216  0079B0  EC16  F029         	call	_kpRead	;wreg free
  3217  0079B4  C04A  F076         	movff	?_kpRead,_tecla
  3218  0079B8  C04B  F077         	movff	?_kpRead+1,_tecla+1
  3219  0079BC                     
  3220                           ;C:/Users/bruno/OneDrive/Documentos/ProgramacaoEmbarcada/projeto_final.X/main.c: 423:   
      +                                                            if (((tecla) & (1<<(4)))) {
  3221  0079BC  A876               	btfss	_tecla^0,4,c
  3222  0079BE  EFE3  F03C         	goto	u4461
  3223  0079C2  EFE5  F03C         	goto	u4460
  3224  0079C6                     u4461:
  3225  0079C6  EFF1  F03C         	goto	l442
  3226  0079CA                     u4460:
  3227  0079CA                     
  3228                           ;C:/Users/bruno/OneDrive/Documentos/ProgramacaoEmbarcada/projeto_final.X/main.c: 425:   
      +                                                                aux_senha[pos] = '0';
  3229  0079CA  0E25               	movlw	low _aux_senha
  3230  0079CC  243F               	addwf	_pos^0,w,c
  3231  0079CE  6ED9               	movwf	fsr2l,c
  3232  0079D0  0E00               	movlw	high _aux_senha
  3233  0079D2  2040               	addwfc	(_pos+1)^0,w,c
  3234  0079D4  6EDA               	movwf	fsr2h,c
  3235  0079D6  0E30               	movlw	48
  3236  0079D8  6EDF               	movwf	indf2,c
  3237  0079DA                     l4846:
  3238                           
  3239                           ;C:/Users/bruno/OneDrive/Documentos/ProgramacaoEmbarcada/projeto_final.X/main.c: 426:   
      +                                                                pos++;
  3240  0079DA  4A3F               	infsnz	_pos^0,f,c
  3241  0079DC  2A40               	incf	(_pos+1)^0,f,c
  3242                           
  3243                           ;C:/Users/bruno/OneDrive/Documentos/ProgramacaoEmbarcada/projeto_final.X/main.c: 427:   
      +                                                            } else if (((tecla) & (1<<(3)))) {
  3244  0079DE  EFBB  F03D         	goto	l4900
  3245  0079E2                     l442:
  3246  0079E2  A676               	btfss	_tecla^0,3,c
  3247  0079E4  EFF6  F03C         	goto	u4471
  3248  0079E8  EFF8  F03C         	goto	u4470
  3249  0079EC                     u4471:
  3250  0079EC  EF02  F03D         	goto	l444
  3251  0079F0                     u4470:
  3252  0079F0                     
  3253                           ;C:/Users/bruno/OneDrive/Documentos/ProgramacaoEmbarcada/projeto_final.X/main.c: 429:   
      +                                                                aux_senha[pos] = '1';
  3254  0079F0  0E25               	movlw	low _aux_senha
  3255  0079F2  243F               	addwf	_pos^0,w,c
  3256  0079F4  6ED9               	movwf	fsr2l,c
  3257  0079F6  0E00               	movlw	high _aux_senha
  3258  0079F8  2040               	addwfc	(_pos+1)^0,w,c
  3259  0079FA  6EDA               	movwf	fsr2h,c
  3260  0079FC  0E31               	movlw	49
  3261  0079FE  6EDF               	movwf	indf2,c
  3262  007A00  EFED  F03C         	goto	l4846
  3263  007A04                     l444:
  3264  007A04  AE76               	btfss	_tecla^0,7,c
  3265  007A06  EF07  F03D         	goto	u4481
  3266  007A0A  EF09  F03D         	goto	u4480
  3267  007A0E                     u4481:
  3268  007A0E  EF13  F03D         	goto	l446
  3269  007A12                     u4480:
  3270  007A12                     
  3271                           ;C:/Users/bruno/OneDrive/Documentos/ProgramacaoEmbarcada/projeto_final.X/main.c: 433:   
      +                                                                aux_senha[pos] = '2';
  3272  007A12  0E25               	movlw	low _aux_senha
  3273  007A14  243F               	addwf	_pos^0,w,c
  3274  007A16  6ED9               	movwf	fsr2l,c
  3275  007A18  0E00               	movlw	high _aux_senha
  3276  007A1A  2040               	addwfc	(_pos+1)^0,w,c
  3277  007A1C  6EDA               	movwf	fsr2h,c
  3278  007A1E  0E32               	movlw	50
  3279  007A20  6EDF               	movwf	indf2,c
  3280  007A22  EFED  F03C         	goto	l4846
  3281  007A26                     l446:
  3282  007A26  A677               	btfss	(_tecla+1)^0,3,c
  3283  007A28  EF18  F03D         	goto	u4491
  3284  007A2C  EF1A  F03D         	goto	u4490
  3285  007A30                     u4491:
  3286  007A30  EF24  F03D         	goto	l448
  3287  007A34                     u4490:
  3288  007A34                     
  3289                           ;C:/Users/bruno/OneDrive/Documentos/ProgramacaoEmbarcada/projeto_final.X/main.c: 437:   
      +                                                                aux_senha[pos] = '3';
  3290  007A34  0E25               	movlw	low _aux_senha
  3291  007A36  243F               	addwf	_pos^0,w,c
  3292  007A38  6ED9               	movwf	fsr2l,c
  3293  007A3A  0E00               	movlw	high _aux_senha
  3294  007A3C  2040               	addwfc	(_pos+1)^0,w,c
  3295  007A3E  6EDA               	movwf	fsr2h,c
  3296  007A40  0E33               	movlw	51
  3297  007A42  6EDF               	movwf	indf2,c
  3298  007A44  EFED  F03C         	goto	l4846
  3299  007A48                     l448:
  3300  007A48  A476               	btfss	_tecla^0,2,c
  3301  007A4A  EF29  F03D         	goto	u4501
  3302  007A4E  EF2B  F03D         	goto	u4500
  3303  007A52                     u4501:
  3304  007A52  EF35  F03D         	goto	l450
  3305  007A56                     u4500:
  3306  007A56                     
  3307                           ;C:/Users/bruno/OneDrive/Documentos/ProgramacaoEmbarcada/projeto_final.X/main.c: 441:   
      +                                                                aux_senha[pos] = '4';
  3308  007A56  0E25               	movlw	low _aux_senha
  3309  007A58  243F               	addwf	_pos^0,w,c
  3310  007A5A  6ED9               	movwf	fsr2l,c
  3311  007A5C  0E00               	movlw	high _aux_senha
  3312  007A5E  2040               	addwfc	(_pos+1)^0,w,c
  3313  007A60  6EDA               	movwf	fsr2h,c
  3314  007A62  0E34               	movlw	52
  3315  007A64  6EDF               	movwf	indf2,c
  3316  007A66  EFED  F03C         	goto	l4846
  3317  007A6A                     l450:
  3318  007A6A  AC76               	btfss	_tecla^0,6,c
  3319  007A6C  EF3A  F03D         	goto	u4511
  3320  007A70  EF3C  F03D         	goto	u4510
  3321  007A74                     u4511:
  3322  007A74  EF46  F03D         	goto	l452
  3323  007A78                     u4510:
  3324  007A78                     
  3325                           ;C:/Users/bruno/OneDrive/Documentos/ProgramacaoEmbarcada/projeto_final.X/main.c: 445:   
      +                                                                aux_senha[pos] = '5';
  3326  007A78  0E25               	movlw	low _aux_senha
  3327  007A7A  243F               	addwf	_pos^0,w,c
  3328  007A7C  6ED9               	movwf	fsr2l,c
  3329  007A7E  0E00               	movlw	high _aux_senha
  3330  007A80  2040               	addwfc	(_pos+1)^0,w,c
  3331  007A82  6EDA               	movwf	fsr2h,c
  3332  007A84  0E35               	movlw	53
  3333  007A86  6EDF               	movwf	indf2,c
  3334  007A88  EFED  F03C         	goto	l4846
  3335  007A8C                     l452:
  3336  007A8C  A477               	btfss	(_tecla+1)^0,2,c
  3337  007A8E  EF4B  F03D         	goto	u4521
  3338  007A92  EF4D  F03D         	goto	u4520
  3339  007A96                     u4521:
  3340  007A96  EF57  F03D         	goto	l454
  3341  007A9A                     u4520:
  3342  007A9A                     
  3343                           ;C:/Users/bruno/OneDrive/Documentos/ProgramacaoEmbarcada/projeto_final.X/main.c: 449:   
      +                                                                aux_senha[pos] = '6';
  3344  007A9A  0E25               	movlw	low _aux_senha
  3345  007A9C  243F               	addwf	_pos^0,w,c
  3346  007A9E  6ED9               	movwf	fsr2l,c
  3347  007AA0  0E00               	movlw	high _aux_senha
  3348  007AA2  2040               	addwfc	(_pos+1)^0,w,c
  3349  007AA4  6EDA               	movwf	fsr2h,c
  3350  007AA6  0E36               	movlw	54
  3351  007AA8  6EDF               	movwf	indf2,c
  3352  007AAA  EFED  F03C         	goto	l4846
  3353  007AAE                     l454:
  3354  007AAE  A276               	btfss	_tecla^0,1,c
  3355  007AB0  EF5C  F03D         	goto	u4531
  3356  007AB4  EF5E  F03D         	goto	u4530
  3357  007AB8                     u4531:
  3358  007AB8  EF68  F03D         	goto	l456
  3359  007ABC                     u4530:
  3360  007ABC                     
  3361                           ;C:/Users/bruno/OneDrive/Documentos/ProgramacaoEmbarcada/projeto_final.X/main.c: 453:   
      +                                                                aux_senha[pos] = '7';
  3362  007ABC  0E25               	movlw	low _aux_senha
  3363  007ABE  243F               	addwf	_pos^0,w,c
  3364  007AC0  6ED9               	movwf	fsr2l,c
  3365  007AC2  0E00               	movlw	high _aux_senha
  3366  007AC4  2040               	addwfc	(_pos+1)^0,w,c
  3367  007AC6  6EDA               	movwf	fsr2h,c
  3368  007AC8  0E37               	movlw	55
  3369  007ACA  6EDF               	movwf	indf2,c
  3370  007ACC  EFED  F03C         	goto	l4846
  3371  007AD0                     l456:
  3372  007AD0  AA76               	btfss	_tecla^0,5,c
  3373  007AD2  EF6D  F03D         	goto	u4541
  3374  007AD6  EF6F  F03D         	goto	u4540
  3375  007ADA                     u4541:
  3376  007ADA  EF79  F03D         	goto	l458
  3377  007ADE                     u4540:
  3378  007ADE                     
  3379                           ;C:/Users/bruno/OneDrive/Documentos/ProgramacaoEmbarcada/projeto_final.X/main.c: 457:   
      +                                                                aux_senha[pos] = '8';
  3380  007ADE  0E25               	movlw	low _aux_senha
  3381  007AE0  243F               	addwf	_pos^0,w,c
  3382  007AE2  6ED9               	movwf	fsr2l,c
  3383  007AE4  0E00               	movlw	high _aux_senha
  3384  007AE6  2040               	addwfc	(_pos+1)^0,w,c
  3385  007AE8  6EDA               	movwf	fsr2h,c
  3386  007AEA  0E38               	movlw	56
  3387  007AEC  6EDF               	movwf	indf2,c
  3388  007AEE  EFED  F03C         	goto	l4846
  3389  007AF2                     l458:
  3390  007AF2  A277               	btfss	(_tecla+1)^0,1,c
  3391  007AF4  EF7E  F03D         	goto	u4551
  3392  007AF8  EF80  F03D         	goto	u4550
  3393  007AFC                     u4551:
  3394  007AFC  EF8A  F03D         	goto	l460
  3395  007B00                     u4550:
  3396  007B00                     
  3397                           ;C:/Users/bruno/OneDrive/Documentos/ProgramacaoEmbarcada/projeto_final.X/main.c: 461:   
      +                                                                aux_senha[pos] = '9';
  3398  007B00  0E25               	movlw	low _aux_senha
  3399  007B02  243F               	addwf	_pos^0,w,c
  3400  007B04  6ED9               	movwf	fsr2l,c
  3401  007B06  0E00               	movlw	high _aux_senha
  3402  007B08  2040               	addwfc	(_pos+1)^0,w,c
  3403  007B0A  6EDA               	movwf	fsr2h,c
  3404  007B0C  0E39               	movlw	57
  3405  007B0E  6EDF               	movwf	indf2,c
  3406  007B10  EFED  F03C         	goto	l4846
  3407  007B14                     l460:
  3408  007B14  A076               	btfss	_tecla^0,0,c
  3409  007B16  EF8F  F03D         	goto	u4561
  3410  007B1A  EF91  F03D         	goto	u4560
  3411  007B1E                     u4561:
  3412  007B1E  EF93  F03D         	goto	l462
  3413  007B22                     u4560:
  3414  007B22  EF52  F03B         	goto	l4674
  3415  007B26                     l462:
  3416  007B26  A077               	btfss	(_tecla+1)^0,0,c
  3417  007B28  EF98  F03D         	goto	u4571
  3418  007B2C  EF9A  F03D         	goto	u4570
  3419  007B30                     u4571:
  3420  007B30  EFBB  F03D         	goto	l459
  3421  007B34                     u4570:
  3422  007B34                     
  3423                           ;C:/Users/bruno/OneDrive/Documentos/ProgramacaoEmbarcada/projeto_final.X/main.c: 466:   
      +                                                                for (i = 0; i < 4; i++) {
  3424  007B34  0E00               	movlw	0
  3425  007B36  6E42               	movwf	(_i+1)^0,c
  3426  007B38  0E00               	movlw	0
  3427  007B3A  6E41               	movwf	_i^0,c
  3428  007B3C                     l4894:
  3429                           
  3430                           ;C:/Users/bruno/OneDrive/Documentos/ProgramacaoEmbarcada/projeto_final.X/main.c: 467:   
      +                                                                    senha[i] = aux_senha[i];
  3431  007B3C  0E25               	movlw	low _aux_senha
  3432  007B3E  2441               	addwf	_i^0,w,c
  3433  007B40  6ED9               	movwf	fsr2l,c
  3434  007B42  0E00               	movlw	high _aux_senha
  3435  007B44  2042               	addwfc	(_i+1)^0,w,c
  3436  007B46  6EDA               	movwf	fsr2h,c
  3437  007B48  0E29               	movlw	low _senha
  3438  007B4A  2441               	addwf	_i^0,w,c
  3439  007B4C  6EE1               	movwf	fsr1l,c
  3440  007B4E  0E00               	movlw	high _senha
  3441  007B50  2042               	addwfc	(_i+1)^0,w,c
  3442  007B52  6EE2               	movwf	fsr1h,c
  3443  007B54  CFDF FFE7          	movff	indf2,indf1
  3444  007B58                     
  3445                           ;C:/Users/bruno/OneDrive/Documentos/ProgramacaoEmbarcada/projeto_final.X/main.c: 468:   
      +                                                                }
  3446  007B58  4A41               	infsnz	_i^0,f,c
  3447  007B5A  2A42               	incf	(_i+1)^0,f,c
  3448  007B5C  5042               	movf	(_i+1)^0,w,c
  3449  007B5E  E109               	bnz	u4580
  3450  007B60  0E04               	movlw	4
  3451  007B62  5C41               	subwf	_i^0,w,c
  3452  007B64  A0D8               	btfss	status,0,c
  3453  007B66  EFB7  F03D         	goto	u4581
  3454  007B6A  EFB9  F03D         	goto	u4580
  3455  007B6E                     u4581:
  3456  007B6E  EF9E  F03D         	goto	l4894
  3457  007B72                     u4580:
  3458  007B72  EF52  F03B         	goto	l4674
  3459  007B76                     l459:
  3460  007B76                     l4900:
  3461                           
  3462                           ;C:/Users/bruno/OneDrive/Documentos/ProgramacaoEmbarcada/projeto_final.X/main.c: 473:   
      +                                                            lcdCommand(0xC0 + 8);
  3463  007B76  0EC8               	movlw	200
  3464  007B78  EC15  F02B         	call	_lcdCommand
  3465  007B7C                     
  3466                           ;C:/Users/bruno/OneDrive/Documentos/ProgramacaoEmbarcada/projeto_final.X/main.c: 474:   
      +                                                            for (i = 0; i < 4; i++) {
  3467  007B7C  0E00               	movlw	0
  3468  007B7E  6E42               	movwf	(_i+1)^0,c
  3469  007B80  0E00               	movlw	0
  3470  007B82  6E41               	movwf	_i^0,c
  3471  007B84                     l4908:
  3472                           
  3473                           ;C:/Users/bruno/OneDrive/Documentos/ProgramacaoEmbarcada/projeto_final.X/main.c: 475:   
      +                                                                lcdData(aux_senha[i]);
  3474  007B84  0E25               	movlw	low _aux_senha
  3475  007B86  2441               	addwf	_i^0,w,c
  3476  007B88  6ED9               	movwf	fsr2l,c
  3477  007B8A  0E00               	movlw	high _aux_senha
  3478  007B8C  2042               	addwfc	(_i+1)^0,w,c
  3479  007B8E  6EDA               	movwf	fsr2h,c
  3480  007B90  50DF               	movf	indf2,w,c
  3481  007B92  EC77  F029         	call	_lcdData
  3482  007B96                     
  3483                           ;C:/Users/bruno/OneDrive/Documentos/ProgramacaoEmbarcada/projeto_final.X/main.c: 476:   
      +                                                            }
  3484  007B96  4A41               	infsnz	_i^0,f,c
  3485  007B98  2A42               	incf	(_i+1)^0,f,c
  3486  007B9A  5042               	movf	(_i+1)^0,w,c
  3487  007B9C  E109               	bnz	u4590
  3488  007B9E  0E04               	movlw	4
  3489  007BA0  5C41               	subwf	_i^0,w,c
  3490  007BA2  A0D8               	btfss	status,0,c
  3491  007BA4  EFD6  F03D         	goto	u4591
  3492  007BA8  EFD8  F03D         	goto	u4590
  3493  007BAC                     u4591:
  3494  007BAC  EFC2  F03D         	goto	l4908
  3495  007BB0                     u4590:
  3496  007BB0  EFC8  F03C         	goto	l4836
  3497  007BB4                     l427:
  3498  007BB4  A076               	btfss	_tecla^0,0,c
  3499  007BB6  EFDF  F03D         	goto	u4601
  3500  007BBA  EFE1  F03D         	goto	u4600
  3501  007BBE                     u4601:
  3502  007BBE  EF52  F03B         	goto	l4674
  3503  007BC2                     u4600:
  3504  007BC2  EFF3  F039         	goto	l4526
  3505  007BC6                     l408:
  3506  007BC6  A677               	btfss	(_tecla+1)^0,3,c
  3507  007BC8  EFE8  F03D         	goto	u4611
  3508  007BCC  EFEA  F03D         	goto	u4610
  3509  007BD0                     u4611:
  3510  007BD0  EFF5  F03F         	goto	l474
  3511  007BD4                     u4610:
  3512  007BD4                     l4916:
  3513                           
  3514                           ;C:/Users/bruno/OneDrive/Documentos/ProgramacaoEmbarcada/projeto_final.X/main.c: 487:   
      +                                                lcdCommand(0x80);
  3515  007BD4  0E80               	movlw	128
  3516  007BD6  EC15  F02B         	call	_lcdCommand
  3517  007BDA                     
  3518                           ;C:/Users/bruno/OneDrive/Documentos/ProgramacaoEmbarcada/projeto_final.X/main.c: 488:   
      +                                                for (i = 0; i < 16; i++) {
  3519  007BDA  0E00               	movlw	0
  3520  007BDC  6E42               	movwf	(_i+1)^0,c
  3521  007BDE  0E00               	movlw	0
  3522  007BE0  6E41               	movwf	_i^0,c
  3523  007BE2                     l4924:
  3524                           
  3525                           ;C:/Users/bruno/OneDrive/Documentos/ProgramacaoEmbarcada/projeto_final.X/main.c: 489:   
      +                                                    lcdData(msg_soneca[0][i]);
  3526  007BE2  0E00               	movlw	low _msg_soneca
  3527  007BE4  2441               	addwf	_i^0,w,c
  3528  007BE6  6ED9               	movwf	fsr2l,c
  3529  007BE8  0E01               	movlw	high _msg_soneca
  3530  007BEA  2042               	addwfc	(_i+1)^0,w,c
  3531  007BEC  6EDA               	movwf	fsr2h,c
  3532  007BEE  50DF               	movf	indf2,w,c
  3533  007BF0  EC77  F029         	call	_lcdData
  3534  007BF4                     
  3535                           ;C:/Users/bruno/OneDrive/Documentos/ProgramacaoEmbarcada/projeto_final.X/main.c: 490:   
      +                                                }
  3536  007BF4  4A41               	infsnz	_i^0,f,c
  3537  007BF6  2A42               	incf	(_i+1)^0,f,c
  3538  007BF8  5042               	movf	(_i+1)^0,w,c
  3539  007BFA  E109               	bnz	u4620
  3540  007BFC  0E10               	movlw	16
  3541  007BFE  5C41               	subwf	_i^0,w,c
  3542  007C00  A0D8               	btfss	status,0,c
  3543  007C02  EF05  F03E         	goto	u4621
  3544  007C06  EF07  F03E         	goto	u4620
  3545  007C0A                     u4621:
  3546  007C0A  EFF1  F03D         	goto	l4924
  3547  007C0E                     u4620:
  3548  007C0E                     
  3549                           ;C:/Users/bruno/OneDrive/Documentos/ProgramacaoEmbarcada/projeto_final.X/main.c: 493:   
      +                                                lcdCommand(0xC0);
  3550  007C0E  0EC0               	movlw	192
  3551  007C10  EC15  F02B         	call	_lcdCommand
  3552  007C14                     
  3553                           ;C:/Users/bruno/OneDrive/Documentos/ProgramacaoEmbarcada/projeto_final.X/main.c: 494:   
      +                                                for (i = 0; i < 16; i++) {
  3554  007C14  0E00               	movlw	0
  3555  007C16  6E42               	movwf	(_i+1)^0,c
  3556  007C18  0E00               	movlw	0
  3557  007C1A  6E41               	movwf	_i^0,c
  3558  007C1C                     l4938:
  3559                           
  3560                           ;C:/Users/bruno/OneDrive/Documentos/ProgramacaoEmbarcada/projeto_final.X/main.c: 495:   
      +                                                    lcdData(msg_soneca[1][i]);
  3561  007C1C  0E10               	movlw	low (_msg_soneca+16)
  3562  007C1E  2441               	addwf	_i^0,w,c
  3563  007C20  6ED9               	movwf	fsr2l,c
  3564  007C22  0E01               	movlw	high (_msg_soneca+16)
  3565  007C24  2042               	addwfc	(_i+1)^0,w,c
  3566  007C26  6EDA               	movwf	fsr2h,c
  3567  007C28  50DF               	movf	indf2,w,c
  3568  007C2A  EC77  F029         	call	_lcdData
  3569  007C2E                     
  3570                           ;C:/Users/bruno/OneDrive/Documentos/ProgramacaoEmbarcada/projeto_final.X/main.c: 496:   
      +                                                }
  3571  007C2E  4A41               	infsnz	_i^0,f,c
  3572  007C30  2A42               	incf	(_i+1)^0,f,c
  3573  007C32  5042               	movf	(_i+1)^0,w,c
  3574  007C34  E109               	bnz	u4630
  3575  007C36  0E10               	movlw	16
  3576  007C38  5C41               	subwf	_i^0,w,c
  3577  007C3A  A0D8               	btfss	status,0,c
  3578  007C3C  EF22  F03E         	goto	u4631
  3579  007C40  EF24  F03E         	goto	u4630
  3580  007C44                     u4631:
  3581  007C44  EF0E  F03E         	goto	l4938
  3582  007C48                     u4630:
  3583  007C48                     
  3584                           ;C:/Users/bruno/OneDrive/Documentos/ProgramacaoEmbarcada/projeto_final.X/main.c: 499:   
      +                                                lcdCommand(0x90);
  3585  007C48  0E90               	movlw	144
  3586  007C4A  EC15  F02B         	call	_lcdCommand
  3587  007C4E                     
  3588                           ;C:/Users/bruno/OneDrive/Documentos/ProgramacaoEmbarcada/projeto_final.X/main.c: 500:   
      +                                                for (i = 0; i < 16; i++) {
  3589  007C4E  0E00               	movlw	0
  3590  007C50  6E42               	movwf	(_i+1)^0,c
  3591  007C52  0E00               	movlw	0
  3592  007C54  6E41               	movwf	_i^0,c
  3593  007C56                     l4952:
  3594                           
  3595                           ;C:/Users/bruno/OneDrive/Documentos/ProgramacaoEmbarcada/projeto_final.X/main.c: 501:   
      +                                                    lcdData(msg_soneca[2][i]);
  3596  007C56  0E20               	movlw	low (_msg_soneca+32)
  3597  007C58  2441               	addwf	_i^0,w,c
  3598  007C5A  6ED9               	movwf	fsr2l,c
  3599  007C5C  0E01               	movlw	high (_msg_soneca+32)
  3600  007C5E  2042               	addwfc	(_i+1)^0,w,c
  3601  007C60  6EDA               	movwf	fsr2h,c
  3602  007C62  50DF               	movf	indf2,w,c
  3603  007C64  EC77  F029         	call	_lcdData
  3604  007C68                     
  3605                           ;C:/Users/bruno/OneDrive/Documentos/ProgramacaoEmbarcada/projeto_final.X/main.c: 502:   
      +                                                }
  3606  007C68  4A41               	infsnz	_i^0,f,c
  3607  007C6A  2A42               	incf	(_i+1)^0,f,c
  3608  007C6C  5042               	movf	(_i+1)^0,w,c
  3609  007C6E  E109               	bnz	u4640
  3610  007C70  0E10               	movlw	16
  3611  007C72  5C41               	subwf	_i^0,w,c
  3612  007C74  A0D8               	btfss	status,0,c
  3613  007C76  EF3F  F03E         	goto	u4641
  3614  007C7A  EF41  F03E         	goto	u4640
  3615  007C7E                     u4641:
  3616  007C7E  EF2B  F03E         	goto	l4952
  3617  007C82                     u4640:
  3618  007C82                     
  3619                           ;C:/Users/bruno/OneDrive/Documentos/ProgramacaoEmbarcada/projeto_final.X/main.c: 505:   
      +                                                lcdCommand(0xD0);
  3620  007C82  0ED0               	movlw	208
  3621  007C84  EC15  F02B         	call	_lcdCommand
  3622  007C88                     
  3623                           ;C:/Users/bruno/OneDrive/Documentos/ProgramacaoEmbarcada/projeto_final.X/main.c: 506:   
      +                                                for (i = 0; i < 16; i++) {
  3624  007C88  0E00               	movlw	0
  3625  007C8A  6E42               	movwf	(_i+1)^0,c
  3626  007C8C  0E00               	movlw	0
  3627  007C8E  6E41               	movwf	_i^0,c
  3628  007C90                     l4966:
  3629                           
  3630                           ;C:/Users/bruno/OneDrive/Documentos/ProgramacaoEmbarcada/projeto_final.X/main.c: 507:   
      +                                                    lcdData(msg_soneca[3][i]);
  3631  007C90  0E30               	movlw	low (_msg_soneca+48)
  3632  007C92  2441               	addwf	_i^0,w,c
  3633  007C94  6ED9               	movwf	fsr2l,c
  3634  007C96  0E01               	movlw	high (_msg_soneca+48)
  3635  007C98  2042               	addwfc	(_i+1)^0,w,c
  3636  007C9A  6EDA               	movwf	fsr2h,c
  3637  007C9C  50DF               	movf	indf2,w,c
  3638  007C9E  EC77  F029         	call	_lcdData
  3639  007CA2                     
  3640                           ;C:/Users/bruno/OneDrive/Documentos/ProgramacaoEmbarcada/projeto_final.X/main.c: 508:   
      +                                                }
  3641  007CA2  4A41               	infsnz	_i^0,f,c
  3642  007CA4  2A42               	incf	(_i+1)^0,f,c
  3643  007CA6  5042               	movf	(_i+1)^0,w,c
  3644  007CA8  E109               	bnz	u4650
  3645  007CAA  0E10               	movlw	16
  3646  007CAC  5C41               	subwf	_i^0,w,c
  3647  007CAE  A0D8               	btfss	status,0,c
  3648  007CB0  EF5C  F03E         	goto	u4651
  3649  007CB4  EF5E  F03E         	goto	u4650
  3650  007CB8                     u4651:
  3651  007CB8  EF48  F03E         	goto	l4966
  3652  007CBC                     u4650:
  3653  007CBC                     l4972:
  3654                           
  3655                           ;C:/Users/bruno/OneDrive/Documentos/ProgramacaoEmbarcada/projeto_final.X/main.c: 511:   
      +                                                    kpDebounce();
  3656  007CBC  EC2E  F02E         	call	_kpDebounce	;wreg free
  3657  007CC0                     
  3658                           ;C:/Users/bruno/OneDrive/Documentos/ProgramacaoEmbarcada/projeto_final.X/main.c: 512:   
      +                                                    if (kpRead() != tecla) {
  3659  007CC0  EC16  F029         	call	_kpRead	;wreg free
  3660  007CC4  5076               	movf	_tecla^0,w,c
  3661  007CC6  184A               	xorwf	?_kpRead^0,w,c
  3662  007CC8  E109               	bnz	u4660
  3663  007CCA  5077               	movf	(_tecla+1)^0,w,c
  3664  007CCC  184B               	xorwf	(?_kpRead+1)^0,w,c
  3665  007CCE  B4D8               	btfsc	status,2,c
  3666  007CD0  EF6C  F03E         	goto	u4661
  3667  007CD4  EF6E  F03E         	goto	u4660
  3668  007CD8                     u4661:
  3669  007CD8  EF5E  F03E         	goto	l4972
  3670  007CDC                     u4660:
  3671  007CDC                     
  3672                           ;C:/Users/bruno/OneDrive/Documentos/ProgramacaoEmbarcada/projeto_final.X/main.c: 513:   
      +                                                        tecla = kpRead();
  3673  007CDC  EC16  F029         	call	_kpRead	;wreg free
  3674  007CE0  C04A  F076         	movff	?_kpRead,_tecla
  3675  007CE4  C04B  F077         	movff	?_kpRead+1,_tecla+1
  3676  007CE8                     
  3677                           ;C:/Users/bruno/OneDrive/Documentos/ProgramacaoEmbarcada/projeto_final.X/main.c: 519:   
      +                                                if (((tecla) & (1<<(3)))) {
  3678  007CE8  A676               	btfss	_tecla^0,3,c
  3679  007CEA  EF79  F03E         	goto	u4671
  3680  007CEE  EF7B  F03E         	goto	u4670
  3681  007CF2                     u4671:
  3682  007CF2  EFAE  F03E         	goto	l487
  3683  007CF6                     u4670:
  3684  007CF6                     
  3685                           ;C:/Users/bruno/OneDrive/Documentos/ProgramacaoEmbarcada/projeto_final.X/main.c: 520:   
      +                                                    if (msg_soneca[0][9] == 'F') {
  3686  007CF6  0E46               	movlw	70
  3687  007CF8  0101               	movlb	1	; () banked
  3688  007CFA  1909               	xorwf	(_msg_soneca+9)& (0+255),w,b
  3689  007CFC  A4D8               	btfss	status,2,c
  3690  007CFE  EF83  F03E         	goto	u4681
  3691  007D02  EF85  F03E         	goto	u4680
  3692  007D06                     u4681:
  3693  007D06  EF8B  F03E         	goto	l4982
  3694  007D0A                     u4680:
  3695  007D0A                     
  3696                           ; BSR set to: 1
  3697                           ;C:/Users/bruno/OneDrive/Documentos/ProgramacaoEmbarcada/projeto_final.X/main.c: 521:   
      +                                                        msg_soneca[0][9] = 'N';
  3698  007D0A  0E4E               	movlw	78
  3699  007D0C  6F09               	movwf	(_msg_soneca+9)& (0+255),b
  3700                           
  3701                           ;C:/Users/bruno/OneDrive/Documentos/ProgramacaoEmbarcada/projeto_final.X/main.c: 522:   
      +                                                        msg_soneca[0][10] = ' ';
  3702  007D0E  0E20               	movlw	32
  3703  007D10  6F0A               	movwf	(_msg_soneca+10)& (0+255),b
  3704                           
  3705                           ;C:/Users/bruno/OneDrive/Documentos/ProgramacaoEmbarcada/projeto_final.X/main.c: 523:   
      +                                                    } else {
  3706  007D12  EF8F  F03E         	goto	l4984
  3707  007D16                     l4982:
  3708                           
  3709                           ; BSR set to: 1
  3710                           ;C:/Users/bruno/OneDrive/Documentos/ProgramacaoEmbarcada/projeto_final.X/main.c: 524:   
      +                                                        msg_soneca[0][9] = 'F';
  3711  007D16  0E46               	movlw	70
  3712  007D18  6F09               	movwf	(_msg_soneca+9)& (0+255),b
  3713                           
  3714                           ;C:/Users/bruno/OneDrive/Documentos/ProgramacaoEmbarcada/projeto_final.X/main.c: 525:   
      +                                                        msg_soneca[0][10] = 'F';
  3715  007D1A  0E46               	movlw	70
  3716  007D1C  6F0A               	movwf	(_msg_soneca+10)& (0+255),b
  3717  007D1E                     l4984:
  3718                           
  3719                           ; BSR set to: 1
  3720                           ;C:/Users/bruno/OneDrive/Documentos/ProgramacaoEmbarcada/projeto_final.X/main.c: 529:   
      +                                                    lcdCommand(0x80);
  3721  007D1E  0E80               	movlw	128
  3722  007D20  EC15  F02B         	call	_lcdCommand
  3723  007D24                     
  3724                           ;C:/Users/bruno/OneDrive/Documentos/ProgramacaoEmbarcada/projeto_final.X/main.c: 530:   
      +                                                    for (i = 0; i < 16; i++) {
  3725  007D24  0E00               	movlw	0
  3726  007D26  6E42               	movwf	(_i+1)^0,c
  3727  007D28  0E00               	movlw	0
  3728  007D2A  6E41               	movwf	_i^0,c
  3729  007D2C                     l4992:
  3730                           
  3731                           ;C:/Users/bruno/OneDrive/Documentos/ProgramacaoEmbarcada/projeto_final.X/main.c: 531:   
      +                                                        lcdData(msg_soneca[0][i]);
  3732  007D2C  0E00               	movlw	low _msg_soneca
  3733  007D2E  2441               	addwf	_i^0,w,c
  3734  007D30  6ED9               	movwf	fsr2l,c
  3735  007D32  0E01               	movlw	high _msg_soneca
  3736  007D34  2042               	addwfc	(_i+1)^0,w,c
  3737  007D36  6EDA               	movwf	fsr2h,c
  3738  007D38  50DF               	movf	indf2,w,c
  3739  007D3A  EC77  F029         	call	_lcdData
  3740  007D3E                     
  3741                           ;C:/Users/bruno/OneDrive/Documentos/ProgramacaoEmbarcada/projeto_final.X/main.c: 532:   
      +                                                    }
  3742  007D3E  4A41               	infsnz	_i^0,f,c
  3743  007D40  2A42               	incf	(_i+1)^0,f,c
  3744  007D42  5042               	movf	(_i+1)^0,w,c
  3745  007D44  E109               	bnz	u4690
  3746  007D46  0E10               	movlw	16
  3747  007D48  5C41               	subwf	_i^0,w,c
  3748  007D4A  A0D8               	btfss	status,0,c
  3749  007D4C  EFAA  F03E         	goto	u4691
  3750  007D50  EFAC  F03E         	goto	u4690
  3751  007D54                     u4691:
  3752  007D54  EF96  F03E         	goto	l4992
  3753  007D58                     u4690:
  3754  007D58  EFEA  F03D         	goto	l4916
  3755  007D5C                     l487:
  3756  007D5C  AE76               	btfss	_tecla^0,7,c
  3757  007D5E  EFB3  F03E         	goto	u4701
  3758  007D62  EFB5  F03E         	goto	u4700
  3759  007D66                     u4701:
  3760  007D66  EFEC  F03F         	goto	l493
  3761  007D6A                     u4700:
  3762  007D6A                     
  3763                           ;C:/Users/bruno/OneDrive/Documentos/ProgramacaoEmbarcada/projeto_final.X/main.c: 537:   
      +                                                    lcdCommand(0x80);
  3764  007D6A  0E80               	movlw	128
  3765  007D6C  EC15  F02B         	call	_lcdCommand
  3766  007D70                     
  3767                           ;C:/Users/bruno/OneDrive/Documentos/ProgramacaoEmbarcada/projeto_final.X/main.c: 538:   
      +                                                    for (i = 0; i < 16; i++) {
  3768  007D70  0E00               	movlw	0
  3769  007D72  6E42               	movwf	(_i+1)^0,c
  3770  007D74  0E00               	movlw	0
  3771  007D76  6E41               	movwf	_i^0,c
  3772  007D78                     l5006:
  3773                           
  3774                           ;C:/Users/bruno/OneDrive/Documentos/ProgramacaoEmbarcada/projeto_final.X/main.c: 539:   
      +                                                        lcdData(msg_ajus_tempo[0][i]);
  3775  007D78  0E70               	movlw	low _msg_ajus_tempo
  3776  007D7A  2441               	addwf	_i^0,w,c
  3777  007D7C  6ED9               	movwf	fsr2l,c
  3778  007D7E  0E02               	movlw	high _msg_ajus_tempo
  3779  007D80  2042               	addwfc	(_i+1)^0,w,c
  3780  007D82  6EDA               	movwf	fsr2h,c
  3781  007D84  50DF               	movf	indf2,w,c
  3782  007D86  EC77  F029         	call	_lcdData
  3783  007D8A                     
  3784                           ;C:/Users/bruno/OneDrive/Documentos/ProgramacaoEmbarcada/projeto_final.X/main.c: 540:   
      +                                                    }
  3785  007D8A  4A41               	infsnz	_i^0,f,c
  3786  007D8C  2A42               	incf	(_i+1)^0,f,c
  3787  007D8E  5042               	movf	(_i+1)^0,w,c
  3788  007D90  E109               	bnz	u4710
  3789  007D92  0E10               	movlw	16
  3790  007D94  5C41               	subwf	_i^0,w,c
  3791  007D96  A0D8               	btfss	status,0,c
  3792  007D98  EFD0  F03E         	goto	u4711
  3793  007D9C  EFD2  F03E         	goto	u4710
  3794  007DA0                     u4711:
  3795  007DA0  EFBC  F03E         	goto	l5006
  3796  007DA4                     u4710:
  3797  007DA4                     
  3798                           ;C:/Users/bruno/OneDrive/Documentos/ProgramacaoEmbarcada/projeto_final.X/main.c: 543:   
      +                                                    lcdCommand(0x80 + 7);
  3799  007DA4  0E87               	movlw	135
  3800  007DA6  EC15  F02B         	call	_lcdCommand
  3801  007DAA                     
  3802                           ;C:/Users/bruno/OneDrive/Documentos/ProgramacaoEmbarcada/projeto_final.X/main.c: 544:   
      +                                                    for (i = 0; i < 2; i++) {
  3803  007DAA  0E00               	movlw	0
  3804  007DAC  6E42               	movwf	(_i+1)^0,c
  3805  007DAE  0E00               	movlw	0
  3806  007DB0  6E41               	movwf	_i^0,c
  3807  007DB2                     l5020:
  3808                           
  3809                           ;C:/Users/bruno/OneDrive/Documentos/ProgramacaoEmbarcada/projeto_final.X/main.c: 545:   
      +                                                        lcdData(tempo_son[i]);
  3810  007DB2  0E74               	movlw	low _tempo_son
  3811  007DB4  2441               	addwf	_i^0,w,c
  3812  007DB6  6ED9               	movwf	fsr2l,c
  3813  007DB8  0E00               	movlw	high _tempo_son
  3814  007DBA  2042               	addwfc	(_i+1)^0,w,c
  3815  007DBC  6EDA               	movwf	fsr2h,c
  3816  007DBE  50DF               	movf	indf2,w,c
  3817  007DC0  EC77  F029         	call	_lcdData
  3818  007DC4                     
  3819                           ;C:/Users/bruno/OneDrive/Documentos/ProgramacaoEmbarcada/projeto_final.X/main.c: 546:   
      +                                                    }
  3820  007DC4  4A41               	infsnz	_i^0,f,c
  3821  007DC6  2A42               	incf	(_i+1)^0,f,c
  3822  007DC8  5042               	movf	(_i+1)^0,w,c
  3823  007DCA  E109               	bnz	u4720
  3824  007DCC  0E02               	movlw	2
  3825  007DCE  5C41               	subwf	_i^0,w,c
  3826  007DD0  A0D8               	btfss	status,0,c
  3827  007DD2  EFED  F03E         	goto	u4721
  3828  007DD6  EFEF  F03E         	goto	u4720
  3829  007DDA                     u4721:
  3830  007DDA  EFD9  F03E         	goto	l5020
  3831  007DDE                     u4720:
  3832  007DDE                     
  3833                           ;C:/Users/bruno/OneDrive/Documentos/ProgramacaoEmbarcada/projeto_final.X/main.c: 549:   
      +                                                    lcdCommand(0xC0);
  3834  007DDE  0EC0               	movlw	192
  3835  007DE0  EC15  F02B         	call	_lcdCommand
  3836  007DE4                     
  3837                           ;C:/Users/bruno/OneDrive/Documentos/ProgramacaoEmbarcada/projeto_final.X/main.c: 550:   
      +                                                    for (i = 0; i < 16; i++) {
  3838  007DE4  0E00               	movlw	0
  3839  007DE6  6E42               	movwf	(_i+1)^0,c
  3840  007DE8  0E00               	movlw	0
  3841  007DEA  6E41               	movwf	_i^0,c
  3842  007DEC                     l5034:
  3843                           
  3844                           ;C:/Users/bruno/OneDrive/Documentos/ProgramacaoEmbarcada/projeto_final.X/main.c: 551:   
      +                                                        lcdData(msg_ajus_tempo[1][i]);
  3845  007DEC  0E80               	movlw	low (_msg_ajus_tempo+16)
  3846  007DEE  2441               	addwf	_i^0,w,c
  3847  007DF0  6ED9               	movwf	fsr2l,c
  3848  007DF2  0E02               	movlw	high (_msg_ajus_tempo+16)
  3849  007DF4  2042               	addwfc	(_i+1)^0,w,c
  3850  007DF6  6EDA               	movwf	fsr2h,c
  3851  007DF8  50DF               	movf	indf2,w,c
  3852  007DFA  EC77  F029         	call	_lcdData
  3853  007DFE                     
  3854                           ;C:/Users/bruno/OneDrive/Documentos/ProgramacaoEmbarcada/projeto_final.X/main.c: 552:   
      +                                                    }
  3855  007DFE  4A41               	infsnz	_i^0,f,c
  3856  007E00  2A42               	incf	(_i+1)^0,f,c
  3857  007E02  5042               	movf	(_i+1)^0,w,c
  3858  007E04  E109               	bnz	u4730
  3859  007E06  0E10               	movlw	16
  3860  007E08  5C41               	subwf	_i^0,w,c
  3861  007E0A  A0D8               	btfss	status,0,c
  3862  007E0C  EF0A  F03F         	goto	u4731
  3863  007E10  EF0C  F03F         	goto	u4730
  3864  007E14                     u4731:
  3865  007E14  EFF6  F03E         	goto	l5034
  3866  007E18                     u4730:
  3867  007E18                     
  3868                           ;C:/Users/bruno/OneDrive/Documentos/ProgramacaoEmbarcada/projeto_final.X/main.c: 555:   
      +                                                    lcdCommand(0x90);
  3869  007E18  0E90               	movlw	144
  3870  007E1A  EC15  F02B         	call	_lcdCommand
  3871  007E1E                     
  3872                           ;C:/Users/bruno/OneDrive/Documentos/ProgramacaoEmbarcada/projeto_final.X/main.c: 556:   
      +                                                    for (i = 0; i < 16; i++) {
  3873  007E1E  0E00               	movlw	0
  3874  007E20  6E42               	movwf	(_i+1)^0,c
  3875  007E22  0E00               	movlw	0
  3876  007E24  6E41               	movwf	_i^0,c
  3877  007E26                     l5048:
  3878                           
  3879                           ;C:/Users/bruno/OneDrive/Documentos/ProgramacaoEmbarcada/projeto_final.X/main.c: 557:   
      +                                                        lcdData(msg_ajus_tempo[2][i]);
  3880  007E26  0E90               	movlw	low (_msg_ajus_tempo+32)
  3881  007E28  2441               	addwf	_i^0,w,c
  3882  007E2A  6ED9               	movwf	fsr2l,c
  3883  007E2C  0E02               	movlw	high (_msg_ajus_tempo+32)
  3884  007E2E  2042               	addwfc	(_i+1)^0,w,c
  3885  007E30  6EDA               	movwf	fsr2h,c
  3886  007E32  50DF               	movf	indf2,w,c
  3887  007E34  EC77  F029         	call	_lcdData
  3888  007E38                     
  3889                           ;C:/Users/bruno/OneDrive/Documentos/ProgramacaoEmbarcada/projeto_final.X/main.c: 558:   
      +                                                    }
  3890  007E38  4A41               	infsnz	_i^0,f,c
  3891  007E3A  2A42               	incf	(_i+1)^0,f,c
  3892  007E3C  5042               	movf	(_i+1)^0,w,c
  3893  007E3E  E109               	bnz	u4740
  3894  007E40  0E10               	movlw	16
  3895  007E42  5C41               	subwf	_i^0,w,c
  3896  007E44  A0D8               	btfss	status,0,c
  3897  007E46  EF27  F03F         	goto	u4741
  3898  007E4A  EF29  F03F         	goto	u4740
  3899  007E4E                     u4741:
  3900  007E4E  EF13  F03F         	goto	l5048
  3901  007E52                     u4740:
  3902  007E52                     
  3903                           ;C:/Users/bruno/OneDrive/Documentos/ProgramacaoEmbarcada/projeto_final.X/main.c: 561:   
      +                                                    lcdCommand(0xD0);
  3904  007E52  0ED0               	movlw	208
  3905  007E54  EC15  F02B         	call	_lcdCommand
  3906  007E58                     
  3907                           ;C:/Users/bruno/OneDrive/Documentos/ProgramacaoEmbarcada/projeto_final.X/main.c: 562:   
      +                                                    for (i = 0; i < 16; i++) {
  3908  007E58  0E00               	movlw	0
  3909  007E5A  6E42               	movwf	(_i+1)^0,c
  3910  007E5C  0E00               	movlw	0
  3911  007E5E  6E41               	movwf	_i^0,c
  3912  007E60                     l5062:
  3913                           
  3914                           ;C:/Users/bruno/OneDrive/Documentos/ProgramacaoEmbarcada/projeto_final.X/main.c: 563:   
      +                                                        lcdData(msg_ajus_tempo[3][i]);
  3915  007E60  0EA0               	movlw	low (_msg_ajus_tempo+48)
  3916  007E62  2441               	addwf	_i^0,w,c
  3917  007E64  6ED9               	movwf	fsr2l,c
  3918  007E66  0E02               	movlw	high (_msg_ajus_tempo+48)
  3919  007E68  2042               	addwfc	(_i+1)^0,w,c
  3920  007E6A  6EDA               	movwf	fsr2h,c
  3921  007E6C  50DF               	movf	indf2,w,c
  3922  007E6E  EC77  F029         	call	_lcdData
  3923  007E72                     
  3924                           ;C:/Users/bruno/OneDrive/Documentos/ProgramacaoEmbarcada/projeto_final.X/main.c: 564:   
      +                                                    }
  3925  007E72  4A41               	infsnz	_i^0,f,c
  3926  007E74  2A42               	incf	(_i+1)^0,f,c
  3927  007E76  5042               	movf	(_i+1)^0,w,c
  3928  007E78  E109               	bnz	u4750
  3929  007E7A  0E10               	movlw	16
  3930  007E7C  5C41               	subwf	_i^0,w,c
  3931  007E7E  A0D8               	btfss	status,0,c
  3932  007E80  EF44  F03F         	goto	u4751
  3933  007E84  EF46  F03F         	goto	u4750
  3934  007E88                     u4751:
  3935  007E88  EF30  F03F         	goto	l5062
  3936  007E8C                     u4750:
  3937  007E8C                     
  3938                           ;C:/Users/bruno/OneDrive/Documentos/ProgramacaoEmbarcada/projeto_final.X/main.c: 567:   
      +                                                    aux_tempo = ((tempo_son[0] - 48)*10) + (tempo_son[1] - 48);
  3939  007E8C  5074               	movf	_tempo_son^0,w,c
  3940  007E8E  0D0A               	mullw	10
  3941  007E90  CFF3 F062          	movff	prodl,??_main
  3942  007E94  CFF4 F063          	movff	prodh,??_main+1
  3943  007E98  5075               	movf	(_tempo_son+1)^0,w,c
  3944  007E9A  2662               	addwf	??_main^0,f,c
  3945  007E9C  0E00               	movlw	0
  3946  007E9E  2263               	addwfc	(??_main+1)^0,f,c
  3947  007EA0  0EF0               	movlw	240
  3948  007EA2  2462               	addwf	??_main^0,w,c
  3949  007EA4  6E31               	movwf	_aux_tempo^0,c
  3950  007EA6  0EFD               	movlw	253
  3951  007EA8  2063               	addwfc	(??_main+1)^0,w,c
  3952  007EAA  6E32               	movwf	(_aux_tempo+1)^0,c
  3953  007EAC                     l5070:
  3954                           
  3955                           ;C:/Users/bruno/OneDrive/Documentos/ProgramacaoEmbarcada/projeto_final.X/main.c: 570:   
      +                                                        kpDebounce();
  3956  007EAC  EC2E  F02E         	call	_kpDebounce	;wreg free
  3957  007EB0                     
  3958                           ;C:/Users/bruno/OneDrive/Documentos/ProgramacaoEmbarcada/projeto_final.X/main.c: 571:   
      +                                                        if (kpRead() != tecla) {
  3959  007EB0  EC16  F029         	call	_kpRead	;wreg free
  3960  007EB4  5076               	movf	_tecla^0,w,c
  3961  007EB6  184A               	xorwf	?_kpRead^0,w,c
  3962  007EB8  E109               	bnz	u4760
  3963  007EBA  5077               	movf	(_tecla+1)^0,w,c
  3964  007EBC  184B               	xorwf	(?_kpRead+1)^0,w,c
  3965  007EBE  B4D8               	btfsc	status,2,c
  3966  007EC0  EF64  F03F         	goto	u4761
  3967  007EC4  EF66  F03F         	goto	u4760
  3968  007EC8                     u4761:
  3969  007EC8  EF56  F03F         	goto	l5070
  3970  007ECC                     u4760:
  3971  007ECC                     
  3972                           ;C:/Users/bruno/OneDrive/Documentos/ProgramacaoEmbarcada/projeto_final.X/main.c: 572:   
      +                                                            tecla = kpRead();
  3973  007ECC  EC16  F029         	call	_kpRead	;wreg free
  3974  007ED0  C04A  F076         	movff	?_kpRead,_tecla
  3975  007ED4  C04B  F077         	movff	?_kpRead+1,_tecla+1
  3976  007ED8                     
  3977                           ;C:/Users/bruno/OneDrive/Documentos/ProgramacaoEmbarcada/projeto_final.X/main.c: 575:   
      +                                                            if (((tecla) & (1<<(3)))) {
  3978  007ED8  A676               	btfss	_tecla^0,3,c
  3979  007EDA  EF71  F03F         	goto	u4771
  3980  007EDE  EF73  F03F         	goto	u4770
  3981  007EE2                     u4771:
  3982  007EE2  EF8B  F03F         	goto	l506
  3983  007EE6                     u4770:
  3984  007EE6                     
  3985                           ;C:/Users/bruno/OneDrive/Documentos/ProgramacaoEmbarcada/projeto_final.X/main.c: 576:   
      +                                                                aux_tempo += 5;
  3986  007EE6  0E05               	movlw	5
  3987  007EE8  2631               	addwf	_aux_tempo^0,f,c
  3988  007EEA  0E00               	movlw	0
  3989  007EEC  2232               	addwfc	(_aux_tempo+1)^0,f,c
  3990                           
  3991                           ;C:/Users/bruno/OneDrive/Documentos/ProgramacaoEmbarcada/projeto_final.X/main.c: 577:   
      +                                                                if (aux_tempo > 95)
  3992  007EEE  BE32               	btfsc	(_aux_tempo+1)^0,7,c
  3993  007EF0  EF83  F03F         	goto	u4781
  3994  007EF4  5032               	movf	(_aux_tempo+1)^0,w,c
  3995  007EF6  E109               	bnz	u4780
  3996  007EF8  0E60               	movlw	96
  3997  007EFA  5C31               	subwf	_aux_tempo^0,w,c
  3998  007EFC  A0D8               	btfss	status,0,c
  3999  007EFE  EF83  F03F         	goto	u4781
  4000  007F02  EF85  F03F         	goto	u4780
  4001  007F06                     u4781:
  4002  007F06  EFB3  F03F         	goto	l5088
  4003  007F0A                     u4780:
  4004  007F0A                     
  4005                           ;C:/Users/bruno/OneDrive/Documentos/ProgramacaoEmbarcada/projeto_final.X/main.c: 578:   
      +                                                                    aux_tempo = 5;
  4006  007F0A  0E00               	movlw	0
  4007  007F0C  6E32               	movwf	(_aux_tempo+1)^0,c
  4008  007F0E  0E05               	movlw	5
  4009  007F10  6E31               	movwf	_aux_tempo^0,c
  4010  007F12  EFB3  F03F         	goto	l5088
  4011  007F16                     l506:
  4012  007F16  AE76               	btfss	_tecla^0,7,c
  4013  007F18  EF90  F03F         	goto	u4791
  4014  007F1C  EF92  F03F         	goto	u4790
  4015  007F20                     u4791:
  4016  007F20  EFAA  F03F         	goto	l509
  4017  007F24                     u4790:
  4018  007F24                     
  4019                           ;C:/Users/bruno/OneDrive/Documentos/ProgramacaoEmbarcada/projeto_final.X/main.c: 581:   
      +                                                                aux_tempo -= 5;
  4020  007F24  0EFB               	movlw	251
  4021  007F26  2631               	addwf	_aux_tempo^0,f,c
  4022  007F28  0EFF               	movlw	255
  4023  007F2A  2232               	addwfc	(_aux_tempo+1)^0,f,c
  4024                           
  4025                           ;C:/Users/bruno/OneDrive/Documentos/ProgramacaoEmbarcada/projeto_final.X/main.c: 582:   
      +                                                                if (aux_tempo < 5)
  4026  007F2C  BE32               	btfsc	(_aux_tempo+1)^0,7,c
  4027  007F2E  EFA4  F03F         	goto	u4800
  4028  007F32  5032               	movf	(_aux_tempo+1)^0,w,c
  4029  007F34  E107               	bnz	u4801
  4030  007F36  0E05               	movlw	5
  4031  007F38  5C31               	subwf	_aux_tempo^0,w,c
  4032  007F3A  B0D8               	btfsc	status,0,c
  4033  007F3C  EFA2  F03F         	goto	u4801
  4034  007F40  EFA4  F03F         	goto	u4800
  4035  007F44                     u4801:
  4036  007F44  EFB3  F03F         	goto	l5088
  4037  007F48                     u4800:
  4038  007F48                     
  4039                           ;C:/Users/bruno/OneDrive/Documentos/ProgramacaoEmbarcada/projeto_final.X/main.c: 583:   
      +                                                                    aux_tempo = 95;
  4040  007F48  0E00               	movlw	0
  4041  007F4A  6E32               	movwf	(_aux_tempo+1)^0,c
  4042  007F4C  0E5F               	movlw	95
  4043  007F4E  6E31               	movwf	_aux_tempo^0,c
  4044  007F50  EFB3  F03F         	goto	l5088
  4045  007F54                     l509:
  4046  007F54  A076               	btfss	_tecla^0,0,c
  4047  007F56  EFAF  F03F         	goto	u4811
  4048  007F5A  EFB1  F03F         	goto	u4810
  4049  007F5E                     u4811:
  4050  007F5E  EFB3  F03F         	goto	l5088
  4051  007F62                     u4810:
  4052  007F62  EFEA  F03D         	goto	l4916
  4053  007F66                     l5088:
  4054                           
  4055                           ;C:/Users/bruno/OneDrive/Documentos/ProgramacaoEmbarcada/projeto_final.X/main.c: 590:   
      +                                                            tempo_son[0] = ((aux_tempo / 10) + 48);
  4056  007F66  C031  F04A         	movff	_aux_tempo,___awdiv@dividend
  4057  007F6A  C032  F04B         	movff	_aux_tempo+1,___awdiv@dividend+1
  4058  007F6E  0E00               	movlw	0
  4059  007F70  6E4D               	movwf	(___awdiv@divisor+1)^0,c
  4060  007F72  0E0A               	movlw	10
  4061  007F74  6E4C               	movwf	___awdiv@divisor^0,c
  4062  007F76  EC80  F02C         	call	___awdiv	;wreg free
  4063  007F7A  504A               	movf	?___awdiv^0,w,c
  4064  007F7C  0F30               	addlw	48
  4065  007F7E  6E74               	movwf	_tempo_son^0,c
  4066                           
  4067                           ;C:/Users/bruno/OneDrive/Documentos/ProgramacaoEmbarcada/projeto_final.X/main.c: 591:   
      +                                                            tempo_son[1] = ((aux_tempo % 10) + 48);
  4068  007F80  C031  F04A         	movff	_aux_tempo,___awmod@dividend
  4069  007F84  C032  F04B         	movff	_aux_tempo+1,___awmod@dividend+1
  4070  007F88  0E00               	movlw	0
  4071  007F8A  6E4D               	movwf	(___awmod@divisor+1)^0,c
  4072  007F8C  0E0A               	movlw	10
  4073  007F8E  6E4C               	movwf	___awmod@divisor^0,c
  4074  007F90  EC28  F02C         	call	___awmod	;wreg free
  4075  007F94  504A               	movf	?___awmod^0,w,c
  4076  007F96  0F30               	addlw	48
  4077  007F98  6E75               	movwf	(_tempo_son+1)^0,c
  4078                           
  4079                           ;C:/Users/bruno/OneDrive/Documentos/ProgramacaoEmbarcada/projeto_final.X/main.c: 594:   
      +                                                            lcdCommand(0x80 + 7);
  4080  007F9A  0E87               	movlw	135
  4081  007F9C  EC15  F02B         	call	_lcdCommand
  4082  007FA0                     
  4083                           ;C:/Users/bruno/OneDrive/Documentos/ProgramacaoEmbarcada/projeto_final.X/main.c: 595:   
      +                                                            for (i = 0; i < 2; i++) {
  4084  007FA0  0E00               	movlw	0
  4085  007FA2  6E42               	movwf	(_i+1)^0,c
  4086  007FA4  0E00               	movlw	0
  4087  007FA6  6E41               	movwf	_i^0,c
  4088  007FA8                     l5096:
  4089                           
  4090                           ;C:/Users/bruno/OneDrive/Documentos/ProgramacaoEmbarcada/projeto_final.X/main.c: 596:   
      +                                                                lcdData(tempo_son[i]);
  4091  007FA8  0E74               	movlw	low _tempo_son
  4092  007FAA  2441               	addwf	_i^0,w,c
  4093  007FAC  6ED9               	movwf	fsr2l,c
  4094  007FAE  0E00               	movlw	high _tempo_son
  4095  007FB0  2042               	addwfc	(_i+1)^0,w,c
  4096  007FB2  6EDA               	movwf	fsr2h,c
  4097  007FB4  50DF               	movf	indf2,w,c
  4098  007FB6  EC77  F029         	call	_lcdData
  4099  007FBA                     
  4100                           ;C:/Users/bruno/OneDrive/Documentos/ProgramacaoEmbarcada/projeto_final.X/main.c: 597:   
      +                                                            }
  4101  007FBA  4A41               	infsnz	_i^0,f,c
  4102  007FBC  2A42               	incf	(_i+1)^0,f,c
  4103  007FBE  5042               	movf	(_i+1)^0,w,c
  4104  007FC0  E109               	bnz	u4820
  4105  007FC2  0E02               	movlw	2
  4106  007FC4  5C41               	subwf	_i^0,w,c
  4107  007FC6  A0D8               	btfss	status,0,c
  4108  007FC8  EFE8  F03F         	goto	u4821
  4109  007FCC  EFEA  F03F         	goto	u4820
  4110  007FD0                     u4821:
  4111  007FD0  EFD4  F03F         	goto	l5096
  4112  007FD4                     u4820:
  4113  007FD4  EF56  F03F         	goto	l5070
  4114  007FD8                     l493:
  4115  007FD8  A076               	btfss	_tecla^0,0,c
  4116  007FDA  EFF1  F03F         	goto	u4831
  4117  007FDE  EFF3  F03F         	goto	u4830
  4118  007FE2                     u4831:
  4119  007FE2  EFEA  F03D         	goto	l4916
  4120  007FE6                     u4830:
  4121  007FE6  EFF3  F039         	goto	l4526
  4122  007FEA                     l474:
  4123  007FEA  A076               	btfss	_tecla^0,0,c
  4124  007FEC  EFFA  F03F         	goto	u4841
  4125  007FF0  EFFC  F03F         	goto	u4840
  4126  007FF4                     u4841:
  4127  007FF4  EFF3  F039         	goto	l4526
  4128  007FF8                     u4840:
  4129  007FF8  EFF8  F035         	goto	l4222
  4130  007FFC  EF00  F000         	goto	start
  4131  008000                     __end_of_main:
  4132                           	callstack 0
  4133                           
  4134 ;; *************** function _tocarAlarme *****************
  4135 ;; Defined at:
  4136 ;;		line 614 in file "C:/Users/bruno/OneDrive/Documentos/ProgramacaoEmbarcada/projeto_final.X/main.c"
  4137 ;; Parameters:    Size  Location     Type
  4138 ;;		None
  4139 ;; Auto vars:     Size  Location     Type
  4140 ;;  senha_digita    4   14[COMRAM] unsigned char [4]
  4141 ;;  i               2   22[COMRAM] int 
  4142 ;;  cont            2   20[COMRAM] int 
  4143 ;;  tmp             2   18[COMRAM] int 
  4144 ;; Return value:  Size  Location     Type
  4145 ;;                  1    wreg      void 
  4146 ;; Registers used:
  4147 ;;		wreg, fsr1l, fsr1h, fsr2l, fsr2h, status,2, status,0, prodl, prodh, cstack
  4148 ;; Tracked objects:
  4149 ;;		On entry : 0/0
  4150 ;;		On exit  : 0/0
  4151 ;;		Unchanged: 0/0
  4152 ;; Data sizes:     COMRAM   BANK0   BANK1   BANK2   BANK3   BANK4   BANK5
  4153 ;;      Params:         0       0       0       0       0       0       0
  4154 ;;      Locals:        10       0       0       0       0       0       0
  4155 ;;      Temps:          2       0       0       0       0       0       0
  4156 ;;      Totals:        12       0       0       0       0       0       0
  4157 ;;Total ram usage:       12 bytes
  4158 ;; Hardware stack levels used: 1
  4159 ;; Hardware stack levels required when called: 4
  4160 ;; This function calls:
  4161 ;;		___awdiv
  4162 ;;		___awmod
  4163 ;;		_atraso_ms
  4164 ;;		_kpDebounce
  4165 ;;		_kpInit
  4166 ;;		_kpRead
  4167 ;;		_lcdCommand
  4168 ;;		_lcdData
  4169 ;;		_lcdInit
  4170 ;;		_pwmInit
  4171 ;;		_pwmSet1
  4172 ;;		_rtc_r
  4173 ;; This function is called by:
  4174 ;;		_main
  4175 ;; This function uses a non-reentrant model
  4176 ;;
  4177                           
  4178                           	psect	text1
  4179  006272                     __ptext1:
  4180                           	callstack 0
  4181  006272                     _tocarAlarme:
  4182                           	callstack 26
  4183  006272                     
  4184                           ;C:/Users/bruno/OneDrive/Documentos/ProgramacaoEmbarcada/projeto_final.X/main.c: 615:   
      +                            char senha_digitada[4];;C:/Users/bruno/OneDrive/Documentos/ProgramacaoEmbarcada/projet
      +                          o_final.X/main.c: 616:     int i, cont = 0;
  4185  006272  0E00               	movlw	0
  4186  006274  6E5F               	movwf	(tocarAlarme@cont+1)^0,c
  4187  006276  0E00               	movlw	0
  4188  006278  6E5E               	movwf	tocarAlarme@cont^0,c
  4189                           
  4190                           ;C:/Users/bruno/OneDrive/Documentos/ProgramacaoEmbarcada/projeto_final.X/main.c: 617:   
      +                            int tmp;;C:/Users/bruno/OneDrive/Documentos/ProgramacaoEmbarcada/projeto_final.X/main.
      +                          c: 619:     TRISA = 0x00;
  4191  00627A  0E00               	movlw	0
  4192  00627C  6E92               	movwf	146,c	;volatile
  4193                           
  4194                           ;C:/Users/bruno/OneDrive/Documentos/ProgramacaoEmbarcada/projeto_final.X/main.c: 620:   
      +                            TRISD = 0x00;
  4195  00627E  0E00               	movlw	0
  4196  006280  6E95               	movwf	149,c	;volatile
  4197  006282                     
  4198                           ;C:/Users/bruno/OneDrive/Documentos/ProgramacaoEmbarcada/projeto_final.X/main.c: 621:   
      +                            PORTD = 0xFF;
  4199  006282  6883               	setf	131,c	;volatile
  4200  006284                     
  4201                           ;C:/Users/bruno/OneDrive/Documentos/ProgramacaoEmbarcada/projeto_final.X/main.c: 623:   
      +                            lcdInit();
  4202  006284  ECD9  F02A         	call	_lcdInit	;wreg free
  4203  006288                     
  4204                           ;C:/Users/bruno/OneDrive/Documentos/ProgramacaoEmbarcada/projeto_final.X/main.c: 624:   
      +                            kpInit();
  4205  006288  EC11  F029         	call	_kpInit	;wreg free
  4206  00628C                     
  4207                           ;C:/Users/bruno/OneDrive/Documentos/ProgramacaoEmbarcada/projeto_final.X/main.c: 625:   
      +                            pwmInit();
  4208  00628C  EC36  F029         	call	_pwmInit	;wreg free
  4209  006290                     
  4210                           ;C:/Users/bruno/OneDrive/Documentos/ProgramacaoEmbarcada/projeto_final.X/main.c: 628:   
      +                            lcdCommand(0x01);
  4211  006290  0E01               	movlw	1
  4212  006292  EC15  F02B         	call	_lcdCommand
  4213  006296                     
  4214                           ;C:/Users/bruno/OneDrive/Documentos/ProgramacaoEmbarcada/projeto_final.X/main.c: 630:   
      +                            pwmSet1(96);
  4215  006296  0E60               	movlw	96
  4216  006298  EC31  F02A         	call	_pwmSet1
  4217  00629C                     
  4218                           ;C:/Users/bruno/OneDrive/Documentos/ProgramacaoEmbarcada/projeto_final.X/main.c: 633:   
      +                            if (msg_luzes[0][8] == 'N') {
  4219  00629C  0E4E               	movlw	78
  4220  00629E  0100               	movlb	0	; () banked
  4221  0062A0  19C8               	xorwf	(_msg_luzes+8)& (0+255),w,b
  4222  0062A2  A4D8               	btfss	status,2,c
  4223  0062A4  EF56  F031         	goto	u3301
  4224  0062A8  EF58  F031         	goto	u3300
  4225  0062AC                     u3301:
  4226  0062AC  EF5C  F031         	goto	l3786
  4227  0062B0                     u3300:
  4228  0062B0                     
  4229                           ; BSR set to: 0
  4230                           ;C:/Users/bruno/OneDrive/Documentos/ProgramacaoEmbarcada/projeto_final.X/main.c: 634:   
      +                                ((PORTA) |= (1<<(5)));
  4231  0062B0  8A80               	bsf	128,5,c	;volatile
  4232                           
  4233                           ;C:/Users/bruno/OneDrive/Documentos/ProgramacaoEmbarcada/projeto_final.X/main.c: 635:   
      +                                ((PORTA) |= (1<<(4)));
  4234  0062B2  8880               	bsf	128,4,c	;volatile
  4235                           
  4236                           ;C:/Users/bruno/OneDrive/Documentos/ProgramacaoEmbarcada/projeto_final.X/main.c: 636:   
      +                                ((PORTA) |= (1<<(3)));
  4237  0062B4  8680               	bsf	128,3,c	;volatile
  4238                           
  4239                           ;C:/Users/bruno/OneDrive/Documentos/ProgramacaoEmbarcada/projeto_final.X/main.c: 637:   
      +                                ((PORTA) |= (1<<(2)));
  4240  0062B6  8480               	bsf	128,2,c	;volatile
  4241  0062B8                     l3786:
  4242                           
  4243                           ; BSR set to: 0
  4244                           ;C:/Users/bruno/OneDrive/Documentos/ProgramacaoEmbarcada/projeto_final.X/main.c: 640:   
      +                            if (msg_senha[0][8] == 'N') {
  4245  0062B8  0E4E               	movlw	78
  4246  0062BA  1988               	xorwf	(_msg_senha+8)& (0+255),w,b
  4247  0062BC  A4D8               	btfss	status,2,c
  4248  0062BE  EF63  F031         	goto	u3311
  4249  0062C2  EF65  F031         	goto	u3310
  4250  0062C6                     u3311:
  4251  0062C6  EF6D  F034         	goto	l4048
  4252  0062CA                     u3310:
  4253  0062CA                     l3788:
  4254                           
  4255                           ;C:/Users/bruno/OneDrive/Documentos/ProgramacaoEmbarcada/projeto_final.X/main.c: 643:   
      +                                    lcdCommand(0x80);
  4256  0062CA  0E80               	movlw	128
  4257  0062CC  EC15  F02B         	call	_lcdCommand
  4258  0062D0                     
  4259                           ;C:/Users/bruno/OneDrive/Documentos/ProgramacaoEmbarcada/projeto_final.X/main.c: 644:   
      +                                    for (i = 0; i < 16; i++) {
  4260  0062D0  0E00               	movlw	0
  4261  0062D2  6E61               	movwf	(tocarAlarme@i+1)^0,c
  4262  0062D4  0E00               	movlw	0
  4263  0062D6  6E60               	movwf	tocarAlarme@i^0,c
  4264  0062D8                     l3796:
  4265                           
  4266                           ;C:/Users/bruno/OneDrive/Documentos/ProgramacaoEmbarcada/projeto_final.X/main.c: 645:   
      +                                        lcdData(hor_alarm[i]);
  4267  0062D8  0E64               	movlw	low _hor_alarm
  4268  0062DA  2460               	addwf	tocarAlarme@i^0,w,c
  4269  0062DC  6ED9               	movwf	fsr2l,c
  4270  0062DE  0E00               	movlw	high _hor_alarm
  4271  0062E0  2061               	addwfc	(tocarAlarme@i+1)^0,w,c
  4272  0062E2  6EDA               	movwf	fsr2h,c
  4273  0062E4  50DF               	movf	indf2,w,c
  4274  0062E6  EC77  F029         	call	_lcdData
  4275  0062EA                     
  4276                           ;C:/Users/bruno/OneDrive/Documentos/ProgramacaoEmbarcada/projeto_final.X/main.c: 646:   
      +                                    }
  4277  0062EA  4A60               	infsnz	tocarAlarme@i^0,f,c
  4278  0062EC  2A61               	incf	(tocarAlarme@i+1)^0,f,c
  4279  0062EE  BE61               	btfsc	(tocarAlarme@i+1)^0,7,c
  4280  0062F0  EF83  F031         	goto	u3321
  4281  0062F4  5061               	movf	(tocarAlarme@i+1)^0,w,c
  4282  0062F6  E109               	bnz	u3320
  4283  0062F8  0E10               	movlw	16
  4284  0062FA  5C60               	subwf	tocarAlarme@i^0,w,c
  4285  0062FC  A0D8               	btfss	status,0,c
  4286  0062FE  EF83  F031         	goto	u3321
  4287  006302  EF85  F031         	goto	u3320
  4288  006306                     u3321:
  4289  006306  EF6C  F031         	goto	l3796
  4290  00630A                     u3320:
  4291  00630A                     
  4292                           ;C:/Users/bruno/OneDrive/Documentos/ProgramacaoEmbarcada/projeto_final.X/main.c: 649:   
      +                                    lcdCommand(0xC0);
  4293  00630A  0EC0               	movlw	192
  4294  00630C  EC15  F02B         	call	_lcdCommand
  4295  006310                     
  4296                           ;C:/Users/bruno/OneDrive/Documentos/ProgramacaoEmbarcada/projeto_final.X/main.c: 650:   
      +                                    for (i = 0; i < 7; i++) {
  4297  006310  0E00               	movlw	0
  4298  006312  6E61               	movwf	(tocarAlarme@i+1)^0,c
  4299  006314  0E00               	movlw	0
  4300  006316  6E60               	movwf	tocarAlarme@i^0,c
  4301  006318                     l3810:
  4302                           
  4303                           ;C:/Users/bruno/OneDrive/Documentos/ProgramacaoEmbarcada/projeto_final.X/main.c: 651:   
      +                                        lcdData(msg_alarm_ativ[2][i]);
  4304  006318  0E20               	movlw	low (_msg_alarm_ativ+32)
  4305  00631A  2460               	addwf	tocarAlarme@i^0,w,c
  4306  00631C  6ED9               	movwf	fsr2l,c
  4307  00631E  0E02               	movlw	high (_msg_alarm_ativ+32)
  4308  006320  2061               	addwfc	(tocarAlarme@i+1)^0,w,c
  4309  006322  6EDA               	movwf	fsr2h,c
  4310  006324  50DF               	movf	indf2,w,c
  4311  006326  EC77  F029         	call	_lcdData
  4312  00632A                     
  4313                           ;C:/Users/bruno/OneDrive/Documentos/ProgramacaoEmbarcada/projeto_final.X/main.c: 652:   
      +                                    }
  4314  00632A  4A60               	infsnz	tocarAlarme@i^0,f,c
  4315  00632C  2A61               	incf	(tocarAlarme@i+1)^0,f,c
  4316  00632E  BE61               	btfsc	(tocarAlarme@i+1)^0,7,c
  4317  006330  EFA3  F031         	goto	u3331
  4318  006334  5061               	movf	(tocarAlarme@i+1)^0,w,c
  4319  006336  E109               	bnz	u3330
  4320  006338  0E07               	movlw	7
  4321  00633A  5C60               	subwf	tocarAlarme@i^0,w,c
  4322  00633C  A0D8               	btfss	status,0,c
  4323  00633E  EFA3  F031         	goto	u3331
  4324  006342  EFA5  F031         	goto	u3330
  4325  006346                     u3331:
  4326  006346  EF8C  F031         	goto	l3810
  4327  00634A                     u3330:
  4328  00634A                     
  4329                           ;C:/Users/bruno/OneDrive/Documentos/ProgramacaoEmbarcada/projeto_final.X/main.c: 654:   
      +                                    lcdCommand(0x90);
  4330  00634A  0E90               	movlw	144
  4331  00634C  EC15  F02B         	call	_lcdCommand
  4332  006350                     
  4333                           ;C:/Users/bruno/OneDrive/Documentos/ProgramacaoEmbarcada/projeto_final.X/main.c: 655:   
      +                                    for (i = 0; i < 16; i++) {
  4334  006350  0E00               	movlw	0
  4335  006352  6E61               	movwf	(tocarAlarme@i+1)^0,c
  4336  006354  0E00               	movlw	0
  4337  006356  6E60               	movwf	tocarAlarme@i^0,c
  4338  006358                     l3824:
  4339                           
  4340                           ;C:/Users/bruno/OneDrive/Documentos/ProgramacaoEmbarcada/projeto_final.X/main.c: 656:   
      +                                        lcdData(msg_alarm_ativ[0][i]);
  4341  006358  0E00               	movlw	low _msg_alarm_ativ
  4342  00635A  2460               	addwf	tocarAlarme@i^0,w,c
  4343  00635C  6ED9               	movwf	fsr2l,c
  4344  00635E  0E02               	movlw	high _msg_alarm_ativ
  4345  006360  2061               	addwfc	(tocarAlarme@i+1)^0,w,c
  4346  006362  6EDA               	movwf	fsr2h,c
  4347  006364  50DF               	movf	indf2,w,c
  4348  006366  EC77  F029         	call	_lcdData
  4349  00636A                     
  4350                           ;C:/Users/bruno/OneDrive/Documentos/ProgramacaoEmbarcada/projeto_final.X/main.c: 657:   
      +                                    }
  4351  00636A  4A60               	infsnz	tocarAlarme@i^0,f,c
  4352  00636C  2A61               	incf	(tocarAlarme@i+1)^0,f,c
  4353  00636E  BE61               	btfsc	(tocarAlarme@i+1)^0,7,c
  4354  006370  EFC3  F031         	goto	u3341
  4355  006374  5061               	movf	(tocarAlarme@i+1)^0,w,c
  4356  006376  E109               	bnz	u3340
  4357  006378  0E10               	movlw	16
  4358  00637A  5C60               	subwf	tocarAlarme@i^0,w,c
  4359  00637C  A0D8               	btfss	status,0,c
  4360  00637E  EFC3  F031         	goto	u3341
  4361  006382  EFC5  F031         	goto	u3340
  4362  006386                     u3341:
  4363  006386  EFAC  F031         	goto	l3824
  4364  00638A                     u3340:
  4365  00638A                     
  4366                           ;C:/Users/bruno/OneDrive/Documentos/ProgramacaoEmbarcada/projeto_final.X/main.c: 659:   
      +                                    lcdCommand(0xD0);
  4367  00638A  0ED0               	movlw	208
  4368  00638C  EC15  F02B         	call	_lcdCommand
  4369  006390                     
  4370                           ;C:/Users/bruno/OneDrive/Documentos/ProgramacaoEmbarcada/projeto_final.X/main.c: 660:   
      +                                    for (i = 0; i < 16; i++) {
  4371  006390  0E00               	movlw	0
  4372  006392  6E61               	movwf	(tocarAlarme@i+1)^0,c
  4373  006394  0E00               	movlw	0
  4374  006396  6E60               	movwf	tocarAlarme@i^0,c
  4375  006398                     l3838:
  4376                           
  4377                           ;C:/Users/bruno/OneDrive/Documentos/ProgramacaoEmbarcada/projeto_final.X/main.c: 661:   
      +                                        lcdData(msg_alarm_ativ[1][i]);
  4378  006398  0E10               	movlw	low (_msg_alarm_ativ+16)
  4379  00639A  2460               	addwf	tocarAlarme@i^0,w,c
  4380  00639C  6ED9               	movwf	fsr2l,c
  4381  00639E  0E02               	movlw	high (_msg_alarm_ativ+16)
  4382  0063A0  2061               	addwfc	(tocarAlarme@i+1)^0,w,c
  4383  0063A2  6EDA               	movwf	fsr2h,c
  4384  0063A4  50DF               	movf	indf2,w,c
  4385  0063A6  EC77  F029         	call	_lcdData
  4386  0063AA                     
  4387                           ;C:/Users/bruno/OneDrive/Documentos/ProgramacaoEmbarcada/projeto_final.X/main.c: 662:   
      +                                    }
  4388  0063AA  4A60               	infsnz	tocarAlarme@i^0,f,c
  4389  0063AC  2A61               	incf	(tocarAlarme@i+1)^0,f,c
  4390  0063AE  BE61               	btfsc	(tocarAlarme@i+1)^0,7,c
  4391  0063B0  EFE3  F031         	goto	u3351
  4392  0063B4  5061               	movf	(tocarAlarme@i+1)^0,w,c
  4393  0063B6  E109               	bnz	u3350
  4394  0063B8  0E10               	movlw	16
  4395  0063BA  5C60               	subwf	tocarAlarme@i^0,w,c
  4396  0063BC  A0D8               	btfss	status,0,c
  4397  0063BE  EFE3  F031         	goto	u3351
  4398  0063C2  EFE5  F031         	goto	u3350
  4399  0063C6                     u3351:
  4400  0063C6  EFCC  F031         	goto	l3838
  4401  0063CA                     u3350:
  4402  0063CA                     l3844:
  4403                           
  4404                           ;C:/Users/bruno/OneDrive/Documentos/ProgramacaoEmbarcada/projeto_final.X/main.c: 665:   
      +                                        kpDebounce();
  4405  0063CA  EC2E  F02E         	call	_kpDebounce	;wreg free
  4406  0063CE                     
  4407                           ;C:/Users/bruno/OneDrive/Documentos/ProgramacaoEmbarcada/projeto_final.X/main.c: 666:   
      +                                        if (kpRead() != tecla) {
  4408  0063CE  EC16  F029         	call	_kpRead	;wreg free
  4409  0063D2  5076               	movf	_tecla^0,w,c
  4410  0063D4  184A               	xorwf	?_kpRead^0,w,c
  4411  0063D6  E109               	bnz	u3360
  4412  0063D8  5077               	movf	(_tecla+1)^0,w,c
  4413  0063DA  184B               	xorwf	(?_kpRead+1)^0,w,c
  4414  0063DC  B4D8               	btfsc	status,2,c
  4415  0063DE  EFF3  F031         	goto	u3361
  4416  0063E2  EFF5  F031         	goto	u3360
  4417  0063E6                     u3361:
  4418  0063E6  EFE5  F031         	goto	l3844
  4419  0063EA                     u3360:
  4420  0063EA                     
  4421                           ;C:/Users/bruno/OneDrive/Documentos/ProgramacaoEmbarcada/projeto_final.X/main.c: 667:   
      +                                            tecla = kpRead();
  4422  0063EA  EC16  F029         	call	_kpRead	;wreg free
  4423  0063EE  C04A  F076         	movff	?_kpRead,_tecla
  4424  0063F2  C04B  F077         	movff	?_kpRead+1,_tecla+1
  4425  0063F6                     
  4426                           ;C:/Users/bruno/OneDrive/Documentos/ProgramacaoEmbarcada/projeto_final.X/main.c: 672:   
      +                                    if (((tecla) & (1<<(4)))) {
  4427  0063F6  A876               	btfss	_tecla^0,4,c
  4428  0063F8  EF00  F032         	goto	u3371
  4429  0063FC  EF02  F032         	goto	u3370
  4430  006400                     u3371:
  4431  006400  EF0E  F032         	goto	l540
  4432  006404                     u3370:
  4433  006404                     
  4434                           ;C:/Users/bruno/OneDrive/Documentos/ProgramacaoEmbarcada/projeto_final.X/main.c: 674:   
      +                                        senha_digitada[cont] = '0';
  4435  006404  0E58               	movlw	low tocarAlarme@senha_digitada
  4436  006406  245E               	addwf	tocarAlarme@cont^0,w,c
  4437  006408  6ED9               	movwf	fsr2l,c
  4438  00640A  0E00               	movlw	high tocarAlarme@senha_digitada
  4439  00640C  205F               	addwfc	(tocarAlarme@cont+1)^0,w,c
  4440  00640E  6EDA               	movwf	fsr2h,c
  4441  006410  0E30               	movlw	48
  4442  006412  6EDF               	movwf	indf2,c
  4443  006414                     l3852:
  4444                           
  4445                           ;C:/Users/bruno/OneDrive/Documentos/ProgramacaoEmbarcada/projeto_final.X/main.c: 675:   
      +                                        cont++;
  4446  006414  4A5E               	infsnz	tocarAlarme@cont^0,f,c
  4447  006416  2A5F               	incf	(tocarAlarme@cont+1)^0,f,c
  4448                           
  4449                           ;C:/Users/bruno/OneDrive/Documentos/ProgramacaoEmbarcada/projeto_final.X/main.c: 676:   
      +                                    } else if (((tecla) & (1<<(3)))) {
  4450  006418  EFA7  F032         	goto	l3890
  4451  00641C                     l540:
  4452  00641C  A676               	btfss	_tecla^0,3,c
  4453  00641E  EF13  F032         	goto	u3381
  4454  006422  EF15  F032         	goto	u3380
  4455  006426                     u3381:
  4456  006426  EF1F  F032         	goto	l542
  4457  00642A                     u3380:
  4458  00642A                     
  4459                           ;C:/Users/bruno/OneDrive/Documentos/ProgramacaoEmbarcada/projeto_final.X/main.c: 678:   
      +                                        senha_digitada[cont] = '1';
  4460  00642A  0E58               	movlw	low tocarAlarme@senha_digitada
  4461  00642C  245E               	addwf	tocarAlarme@cont^0,w,c
  4462  00642E  6ED9               	movwf	fsr2l,c
  4463  006430  0E00               	movlw	high tocarAlarme@senha_digitada
  4464  006432  205F               	addwfc	(tocarAlarme@cont+1)^0,w,c
  4465  006434  6EDA               	movwf	fsr2h,c
  4466  006436  0E31               	movlw	49
  4467  006438  6EDF               	movwf	indf2,c
  4468  00643A  EF0A  F032         	goto	l3852
  4469  00643E                     l542:
  4470  00643E  AE76               	btfss	_tecla^0,7,c
  4471  006440  EF24  F032         	goto	u3391
  4472  006444  EF26  F032         	goto	u3390
  4473  006448                     u3391:
  4474  006448  EF30  F032         	goto	l544
  4475  00644C                     u3390:
  4476  00644C                     
  4477                           ;C:/Users/bruno/OneDrive/Documentos/ProgramacaoEmbarcada/projeto_final.X/main.c: 682:   
      +                                        senha_digitada[cont] = '2';
  4478  00644C  0E58               	movlw	low tocarAlarme@senha_digitada
  4479  00644E  245E               	addwf	tocarAlarme@cont^0,w,c
  4480  006450  6ED9               	movwf	fsr2l,c
  4481  006452  0E00               	movlw	high tocarAlarme@senha_digitada
  4482  006454  205F               	addwfc	(tocarAlarme@cont+1)^0,w,c
  4483  006456  6EDA               	movwf	fsr2h,c
  4484  006458  0E32               	movlw	50
  4485  00645A  6EDF               	movwf	indf2,c
  4486  00645C  EF0A  F032         	goto	l3852
  4487  006460                     l544:
  4488  006460  A677               	btfss	(_tecla+1)^0,3,c
  4489  006462  EF35  F032         	goto	u3401
  4490  006466  EF37  F032         	goto	u3400
  4491  00646A                     u3401:
  4492  00646A  EF41  F032         	goto	l546
  4493  00646E                     u3400:
  4494  00646E                     
  4495                           ;C:/Users/bruno/OneDrive/Documentos/ProgramacaoEmbarcada/projeto_final.X/main.c: 686:   
      +                                        senha_digitada[cont] = '3';
  4496  00646E  0E58               	movlw	low tocarAlarme@senha_digitada
  4497  006470  245E               	addwf	tocarAlarme@cont^0,w,c
  4498  006472  6ED9               	movwf	fsr2l,c
  4499  006474  0E00               	movlw	high tocarAlarme@senha_digitada
  4500  006476  205F               	addwfc	(tocarAlarme@cont+1)^0,w,c
  4501  006478  6EDA               	movwf	fsr2h,c
  4502  00647A  0E33               	movlw	51
  4503  00647C  6EDF               	movwf	indf2,c
  4504  00647E  EF0A  F032         	goto	l3852
  4505  006482                     l546:
  4506  006482  A476               	btfss	_tecla^0,2,c
  4507  006484  EF46  F032         	goto	u3411
  4508  006488  EF48  F032         	goto	u3410
  4509  00648C                     u3411:
  4510  00648C  EF52  F032         	goto	l548
  4511  006490                     u3410:
  4512  006490                     
  4513                           ;C:/Users/bruno/OneDrive/Documentos/ProgramacaoEmbarcada/projeto_final.X/main.c: 690:   
      +                                        senha_digitada[cont] = '4';
  4514  006490  0E58               	movlw	low tocarAlarme@senha_digitada
  4515  006492  245E               	addwf	tocarAlarme@cont^0,w,c
  4516  006494  6ED9               	movwf	fsr2l,c
  4517  006496  0E00               	movlw	high tocarAlarme@senha_digitada
  4518  006498  205F               	addwfc	(tocarAlarme@cont+1)^0,w,c
  4519  00649A  6EDA               	movwf	fsr2h,c
  4520  00649C  0E34               	movlw	52
  4521  00649E  6EDF               	movwf	indf2,c
  4522  0064A0  EF0A  F032         	goto	l3852
  4523  0064A4                     l548:
  4524  0064A4  AC76               	btfss	_tecla^0,6,c
  4525  0064A6  EF57  F032         	goto	u3421
  4526  0064AA  EF59  F032         	goto	u3420
  4527  0064AE                     u3421:
  4528  0064AE  EF63  F032         	goto	l550
  4529  0064B2                     u3420:
  4530  0064B2                     
  4531                           ;C:/Users/bruno/OneDrive/Documentos/ProgramacaoEmbarcada/projeto_final.X/main.c: 694:   
      +                                        senha_digitada[cont] = '5';
  4532  0064B2  0E58               	movlw	low tocarAlarme@senha_digitada
  4533  0064B4  245E               	addwf	tocarAlarme@cont^0,w,c
  4534  0064B6  6ED9               	movwf	fsr2l,c
  4535  0064B8  0E00               	movlw	high tocarAlarme@senha_digitada
  4536  0064BA  205F               	addwfc	(tocarAlarme@cont+1)^0,w,c
  4537  0064BC  6EDA               	movwf	fsr2h,c
  4538  0064BE  0E35               	movlw	53
  4539  0064C0  6EDF               	movwf	indf2,c
  4540  0064C2  EF0A  F032         	goto	l3852
  4541  0064C6                     l550:
  4542  0064C6  A477               	btfss	(_tecla+1)^0,2,c
  4543  0064C8  EF68  F032         	goto	u3431
  4544  0064CC  EF6A  F032         	goto	u3430
  4545  0064D0                     u3431:
  4546  0064D0  EF74  F032         	goto	l552
  4547  0064D4                     u3430:
  4548  0064D4                     
  4549                           ;C:/Users/bruno/OneDrive/Documentos/ProgramacaoEmbarcada/projeto_final.X/main.c: 698:   
      +                                        senha_digitada[cont] = '6';
  4550  0064D4  0E58               	movlw	low tocarAlarme@senha_digitada
  4551  0064D6  245E               	addwf	tocarAlarme@cont^0,w,c
  4552  0064D8  6ED9               	movwf	fsr2l,c
  4553  0064DA  0E00               	movlw	high tocarAlarme@senha_digitada
  4554  0064DC  205F               	addwfc	(tocarAlarme@cont+1)^0,w,c
  4555  0064DE  6EDA               	movwf	fsr2h,c
  4556  0064E0  0E36               	movlw	54
  4557  0064E2  6EDF               	movwf	indf2,c
  4558  0064E4  EF0A  F032         	goto	l3852
  4559  0064E8                     l552:
  4560  0064E8  A276               	btfss	_tecla^0,1,c
  4561  0064EA  EF79  F032         	goto	u3441
  4562  0064EE  EF7B  F032         	goto	u3440
  4563  0064F2                     u3441:
  4564  0064F2  EF85  F032         	goto	l554
  4565  0064F6                     u3440:
  4566  0064F6                     
  4567                           ;C:/Users/bruno/OneDrive/Documentos/ProgramacaoEmbarcada/projeto_final.X/main.c: 702:   
      +                                        senha_digitada[cont] = '7';
  4568  0064F6  0E58               	movlw	low tocarAlarme@senha_digitada
  4569  0064F8  245E               	addwf	tocarAlarme@cont^0,w,c
  4570  0064FA  6ED9               	movwf	fsr2l,c
  4571  0064FC  0E00               	movlw	high tocarAlarme@senha_digitada
  4572  0064FE  205F               	addwfc	(tocarAlarme@cont+1)^0,w,c
  4573  006500  6EDA               	movwf	fsr2h,c
  4574  006502  0E37               	movlw	55
  4575  006504  6EDF               	movwf	indf2,c
  4576  006506  EF0A  F032         	goto	l3852
  4577  00650A                     l554:
  4578  00650A  AA76               	btfss	_tecla^0,5,c
  4579  00650C  EF8A  F032         	goto	u3451
  4580  006510  EF8C  F032         	goto	u3450
  4581  006514                     u3451:
  4582  006514  EF96  F032         	goto	l556
  4583  006518                     u3450:
  4584  006518                     
  4585                           ;C:/Users/bruno/OneDrive/Documentos/ProgramacaoEmbarcada/projeto_final.X/main.c: 706:   
      +                                        senha_digitada[cont] = '8';
  4586  006518  0E58               	movlw	low tocarAlarme@senha_digitada
  4587  00651A  245E               	addwf	tocarAlarme@cont^0,w,c
  4588  00651C  6ED9               	movwf	fsr2l,c
  4589  00651E  0E00               	movlw	high tocarAlarme@senha_digitada
  4590  006520  205F               	addwfc	(tocarAlarme@cont+1)^0,w,c
  4591  006522  6EDA               	movwf	fsr2h,c
  4592  006524  0E38               	movlw	56
  4593  006526  6EDF               	movwf	indf2,c
  4594  006528  EF0A  F032         	goto	l3852
  4595  00652C                     l556:
  4596  00652C  A277               	btfss	(_tecla+1)^0,1,c
  4597  00652E  EF9B  F032         	goto	u3461
  4598  006532  EF9D  F032         	goto	u3460
  4599  006536                     u3461:
  4600  006536  EFA7  F032         	goto	l553
  4601  00653A                     u3460:
  4602  00653A                     
  4603                           ;C:/Users/bruno/OneDrive/Documentos/ProgramacaoEmbarcada/projeto_final.X/main.c: 710:   
      +                                        senha_digitada[cont] = '9';
  4604  00653A  0E58               	movlw	low tocarAlarme@senha_digitada
  4605  00653C  245E               	addwf	tocarAlarme@cont^0,w,c
  4606  00653E  6ED9               	movwf	fsr2l,c
  4607  006540  0E00               	movlw	high tocarAlarme@senha_digitada
  4608  006542  205F               	addwfc	(tocarAlarme@cont+1)^0,w,c
  4609  006544  6EDA               	movwf	fsr2h,c
  4610  006546  0E39               	movlw	57
  4611  006548  6EDF               	movwf	indf2,c
  4612  00654A  EF0A  F032         	goto	l3852
  4613  00654E                     l553:
  4614  00654E                     l3890:
  4615                           
  4616                           ;C:/Users/bruno/OneDrive/Documentos/ProgramacaoEmbarcada/projeto_final.X/main.c: 714:   
      +                                    lcdCommand(0xC0 + 7);
  4617  00654E  0EC7               	movlw	199
  4618  006550  EC15  F02B         	call	_lcdCommand
  4619  006554                     
  4620                           ;C:/Users/bruno/OneDrive/Documentos/ProgramacaoEmbarcada/projeto_final.X/main.c: 715:   
      +                                    for (i = 0; i < 4; i++) {
  4621  006554  0E00               	movlw	0
  4622  006556  6E61               	movwf	(tocarAlarme@i+1)^0,c
  4623  006558  0E00               	movlw	0
  4624  00655A  6E60               	movwf	tocarAlarme@i^0,c
  4625  00655C                     l3898:
  4626                           
  4627                           ;C:/Users/bruno/OneDrive/Documentos/ProgramacaoEmbarcada/projeto_final.X/main.c: 716:   
      +                                        lcdData(senha_digitada[i]);
  4628  00655C  0E58               	movlw	low tocarAlarme@senha_digitada
  4629  00655E  2460               	addwf	tocarAlarme@i^0,w,c
  4630  006560  6ED9               	movwf	fsr2l,c
  4631  006562  0E00               	movlw	high tocarAlarme@senha_digitada
  4632  006564  2061               	addwfc	(tocarAlarme@i+1)^0,w,c
  4633  006566  6EDA               	movwf	fsr2h,c
  4634  006568  50DF               	movf	indf2,w,c
  4635  00656A  EC77  F029         	call	_lcdData
  4636  00656E                     
  4637                           ;C:/Users/bruno/OneDrive/Documentos/ProgramacaoEmbarcada/projeto_final.X/main.c: 717:   
      +                                    }
  4638  00656E  4A60               	infsnz	tocarAlarme@i^0,f,c
  4639  006570  2A61               	incf	(tocarAlarme@i+1)^0,f,c
  4640  006572  BE61               	btfsc	(tocarAlarme@i+1)^0,7,c
  4641  006574  EFC5  F032         	goto	u3471
  4642  006578  5061               	movf	(tocarAlarme@i+1)^0,w,c
  4643  00657A  E109               	bnz	u3470
  4644  00657C  0E04               	movlw	4
  4645  00657E  5C60               	subwf	tocarAlarme@i^0,w,c
  4646  006580  A0D8               	btfss	status,0,c
  4647  006582  EFC5  F032         	goto	u3471
  4648  006586  EFC7  F032         	goto	u3470
  4649  00658A                     u3471:
  4650  00658A  EFAE  F032         	goto	l3898
  4651  00658E                     u3470:
  4652  00658E                     
  4653                           ;C:/Users/bruno/OneDrive/Documentos/ProgramacaoEmbarcada/projeto_final.X/main.c: 719:   
      +                                    if (((tecla) & (1<<(0)))) {
  4654  00658E  A076               	btfss	_tecla^0,0,c
  4655  006590  EFCC  F032         	goto	u3481
  4656  006594  EFCE  F032         	goto	u3480
  4657  006598                     u3481:
  4658  006598  EF85  F033         	goto	l3982
  4659  00659C                     u3480:
  4660  00659C                     
  4661                           ;C:/Users/bruno/OneDrive/Documentos/ProgramacaoEmbarcada/projeto_final.X/main.c: 721:   
      +                                        for (i = 0; i < 4; i++) {
  4662  00659C  0E00               	movlw	0
  4663  00659E  6E61               	movwf	(tocarAlarme@i+1)^0,c
  4664  0065A0  0E00               	movlw	0
  4665  0065A2  6E60               	movwf	tocarAlarme@i^0,c
  4666  0065A4                     l3910:
  4667                           
  4668                           ;C:/Users/bruno/OneDrive/Documentos/ProgramacaoEmbarcada/projeto_final.X/main.c: 722:   
      +                                            if (senha[i] != senha_digitada[i]) {
  4669  0065A4  0E58               	movlw	low tocarAlarme@senha_digitada
  4670  0065A6  2460               	addwf	tocarAlarme@i^0,w,c
  4671  0065A8  6ED9               	movwf	fsr2l,c
  4672  0065AA  0E00               	movlw	high tocarAlarme@senha_digitada
  4673  0065AC  2061               	addwfc	(tocarAlarme@i+1)^0,w,c
  4674  0065AE  6EDA               	movwf	fsr2h,c
  4675  0065B0  0E29               	movlw	low _senha
  4676  0065B2  2460               	addwf	tocarAlarme@i^0,w,c
  4677  0065B4  6EE1               	movwf	fsr1l,c
  4678  0065B6  0E00               	movlw	high _senha
  4679  0065B8  2061               	addwfc	(tocarAlarme@i+1)^0,w,c
  4680  0065BA  6EE2               	movwf	fsr1h,c
  4681  0065BC  50DE               	movf	postinc2,w,c
  4682  0065BE  18E6               	xorwf	postinc1,w,c
  4683  0065C0  B4D8               	btfsc	status,2,c
  4684  0065C2  EFE5  F032         	goto	u3491
  4685  0065C6  EFE7  F032         	goto	u3490
  4686  0065CA                     u3491:
  4687  0065CA  EFE9  F032         	goto	l3914
  4688  0065CE                     u3490:
  4689  0065CE                     
  4690                           ;C:/Users/bruno/OneDrive/Documentos/ProgramacaoEmbarcada/projeto_final.X/main.c: 724:   
      +                                                break;
  4691  0065CE  EFF9  F032         	goto	l3918
  4692  0065D2                     l3914:
  4693                           
  4694                           ;C:/Users/bruno/OneDrive/Documentos/ProgramacaoEmbarcada/projeto_final.X/main.c: 726:   
      +                                        }
  4695  0065D2  4A60               	infsnz	tocarAlarme@i^0,f,c
  4696  0065D4  2A61               	incf	(tocarAlarme@i+1)^0,f,c
  4697  0065D6  BE61               	btfsc	(tocarAlarme@i+1)^0,7,c
  4698  0065D8  EFF7  F032         	goto	u3501
  4699  0065DC  5061               	movf	(tocarAlarme@i+1)^0,w,c
  4700  0065DE  E109               	bnz	u3500
  4701  0065E0  0E04               	movlw	4
  4702  0065E2  5C60               	subwf	tocarAlarme@i^0,w,c
  4703  0065E4  A0D8               	btfss	status,0,c
  4704  0065E6  EFF7  F032         	goto	u3501
  4705  0065EA  EFF9  F032         	goto	u3500
  4706  0065EE                     u3501:
  4707  0065EE  EFD2  F032         	goto	l3910
  4708  0065F2                     u3500:
  4709  0065F2                     l3918:
  4710                           
  4711                           ;C:/Users/bruno/OneDrive/Documentos/ProgramacaoEmbarcada/projeto_final.X/main.c: 728:   
      +                                        if (i == 4) {
  4712  0065F2  0E04               	movlw	4
  4713  0065F4  1860               	xorwf	tocarAlarme@i^0,w,c
  4714  0065F6  1061               	iorwf	(tocarAlarme@i+1)^0,w,c
  4715  0065F8  A4D8               	btfss	status,2,c
  4716  0065FA  EF01  F033         	goto	u3511
  4717  0065FE  EF03  F033         	goto	u3510
  4718  006602                     u3511:
  4719  006602  EF05  F033         	goto	l3924
  4720  006606                     u3510:
  4721  006606  EFE8  F035         	goto	l4178
  4722  00660A                     l3924:
  4723                           
  4724                           ;C:/Users/bruno/OneDrive/Documentos/ProgramacaoEmbarcada/projeto_final.X/main.c: 733:   
      +                                            lcdCommand(0xC0);
  4725  00660A  0EC0               	movlw	192
  4726  00660C  EC15  F02B         	call	_lcdCommand
  4727  006610                     
  4728                           ;C:/Users/bruno/OneDrive/Documentos/ProgramacaoEmbarcada/projeto_final.X/main.c: 734:   
      +                                            for (i = 0; i < 16; i++) {
  4729  006610  0E00               	movlw	0
  4730  006612  6E61               	movwf	(tocarAlarme@i+1)^0,c
  4731  006614  0E00               	movlw	0
  4732  006616  6E60               	movwf	tocarAlarme@i^0,c
  4733  006618                     l3932:
  4734                           
  4735                           ;C:/Users/bruno/OneDrive/Documentos/ProgramacaoEmbarcada/projeto_final.X/main.c: 735:   
      +                                                lcdData(msg_alarm_ativ[3][i]);
  4736  006618  0E30               	movlw	low (_msg_alarm_ativ+48)
  4737  00661A  2460               	addwf	tocarAlarme@i^0,w,c
  4738  00661C  6ED9               	movwf	fsr2l,c
  4739  00661E  0E02               	movlw	high (_msg_alarm_ativ+48)
  4740  006620  2061               	addwfc	(tocarAlarme@i+1)^0,w,c
  4741  006622  6EDA               	movwf	fsr2h,c
  4742  006624  50DF               	movf	indf2,w,c
  4743  006626  EC77  F029         	call	_lcdData
  4744  00662A                     
  4745                           ;C:/Users/bruno/OneDrive/Documentos/ProgramacaoEmbarcada/projeto_final.X/main.c: 736:   
      +                                            }
  4746  00662A  4A60               	infsnz	tocarAlarme@i^0,f,c
  4747  00662C  2A61               	incf	(tocarAlarme@i+1)^0,f,c
  4748  00662E  BE61               	btfsc	(tocarAlarme@i+1)^0,7,c
  4749  006630  EF23  F033         	goto	u3521
  4750  006634  5061               	movf	(tocarAlarme@i+1)^0,w,c
  4751  006636  E109               	bnz	u3520
  4752  006638  0E10               	movlw	16
  4753  00663A  5C60               	subwf	tocarAlarme@i^0,w,c
  4754  00663C  A0D8               	btfss	status,0,c
  4755  00663E  EF23  F033         	goto	u3521
  4756  006642  EF25  F033         	goto	u3520
  4757  006646                     u3521:
  4758  006646  EF0C  F033         	goto	l3932
  4759  00664A                     u3520:
  4760  00664A                     
  4761                           ;C:/Users/bruno/OneDrive/Documentos/ProgramacaoEmbarcada/projeto_final.X/main.c: 738:   
      +                                            lcdCommand(0x90);
  4762  00664A  0E90               	movlw	144
  4763  00664C  EC15  F02B         	call	_lcdCommand
  4764  006650                     
  4765                           ;C:/Users/bruno/OneDrive/Documentos/ProgramacaoEmbarcada/projeto_final.X/main.c: 739:   
      +                                            for (i = 0; i < 16; i++) {
  4766  006650  0E00               	movlw	0
  4767  006652  6E61               	movwf	(tocarAlarme@i+1)^0,c
  4768  006654  0E00               	movlw	0
  4769  006656  6E60               	movwf	tocarAlarme@i^0,c
  4770  006658                     l3946:
  4771                           
  4772                           ;C:/Users/bruno/OneDrive/Documentos/ProgramacaoEmbarcada/projeto_final.X/main.c: 740:   
      +                                                lcdData(msg_alarm_ativ[4][i]);
  4773  006658  0E40               	movlw	low (_msg_alarm_ativ+64)
  4774  00665A  2460               	addwf	tocarAlarme@i^0,w,c
  4775  00665C  6ED9               	movwf	fsr2l,c
  4776  00665E  0E02               	movlw	high (_msg_alarm_ativ+64)
  4777  006660  2061               	addwfc	(tocarAlarme@i+1)^0,w,c
  4778  006662  6EDA               	movwf	fsr2h,c
  4779  006664  50DF               	movf	indf2,w,c
  4780  006666  EC77  F029         	call	_lcdData
  4781  00666A                     
  4782                           ;C:/Users/bruno/OneDrive/Documentos/ProgramacaoEmbarcada/projeto_final.X/main.c: 741:   
      +                                            }
  4783  00666A  4A60               	infsnz	tocarAlarme@i^0,f,c
  4784  00666C  2A61               	incf	(tocarAlarme@i+1)^0,f,c
  4785  00666E  BE61               	btfsc	(tocarAlarme@i+1)^0,7,c
  4786  006670  EF43  F033         	goto	u3531
  4787  006674  5061               	movf	(tocarAlarme@i+1)^0,w,c
  4788  006676  E109               	bnz	u3530
  4789  006678  0E10               	movlw	16
  4790  00667A  5C60               	subwf	tocarAlarme@i^0,w,c
  4791  00667C  A0D8               	btfss	status,0,c
  4792  00667E  EF43  F033         	goto	u3531
  4793  006682  EF45  F033         	goto	u3530
  4794  006686                     u3531:
  4795  006686  EF2C  F033         	goto	l3946
  4796  00668A                     u3530:
  4797  00668A                     
  4798                           ;C:/Users/bruno/OneDrive/Documentos/ProgramacaoEmbarcada/projeto_final.X/main.c: 742:   
      +                                            atraso_ms(3000);
  4799  00668A  0E0B               	movlw	11
  4800  00668C  6E4B               	movwf	(atraso_ms@valor+1)^0,c
  4801  00668E  0EB8               	movlw	184
  4802  006690  6E4A               	movwf	atraso_ms@valor^0,c
  4803  006692  ECFF  F029         	call	_atraso_ms	;wreg free
  4804  006696                     
  4805                           ;C:/Users/bruno/OneDrive/Documentos/ProgramacaoEmbarcada/projeto_final.X/main.c: 744:   
      +                                            for (i = 0; i < 4; i++) {
  4806  006696  0E00               	movlw	0
  4807  006698  6E61               	movwf	(tocarAlarme@i+1)^0,c
  4808  00669A  0E00               	movlw	0
  4809  00669C  6E60               	movwf	tocarAlarme@i^0,c
  4810  00669E                     l3960:
  4811                           
  4812                           ;C:/Users/bruno/OneDrive/Documentos/ProgramacaoEmbarcada/projeto_final.X/main.c: 745:   
      +                                                senha_digitada[i] = ' ';
  4813  00669E  0E58               	movlw	low tocarAlarme@senha_digitada
  4814  0066A0  2460               	addwf	tocarAlarme@i^0,w,c
  4815  0066A2  6ED9               	movwf	fsr2l,c
  4816  0066A4  0E00               	movlw	high tocarAlarme@senha_digitada
  4817  0066A6  2061               	addwfc	(tocarAlarme@i+1)^0,w,c
  4818  0066A8  6EDA               	movwf	fsr2h,c
  4819  0066AA  0E20               	movlw	32
  4820  0066AC  6EDF               	movwf	indf2,c
  4821  0066AE                     
  4822                           ;C:/Users/bruno/OneDrive/Documentos/ProgramacaoEmbarcada/projeto_final.X/main.c: 746:   
      +                                            }
  4823  0066AE  4A60               	infsnz	tocarAlarme@i^0,f,c
  4824  0066B0  2A61               	incf	(tocarAlarme@i+1)^0,f,c
  4825  0066B2  BE61               	btfsc	(tocarAlarme@i+1)^0,7,c
  4826  0066B4  EF65  F033         	goto	u3541
  4827  0066B8  5061               	movf	(tocarAlarme@i+1)^0,w,c
  4828  0066BA  E109               	bnz	u3540
  4829  0066BC  0E04               	movlw	4
  4830  0066BE  5C60               	subwf	tocarAlarme@i^0,w,c
  4831  0066C0  A0D8               	btfss	status,0,c
  4832  0066C2  EF65  F033         	goto	u3541
  4833  0066C6  EF67  F033         	goto	u3540
  4834  0066CA                     u3541:
  4835  0066CA  EF4F  F033         	goto	l3960
  4836  0066CE                     u3540:
  4837  0066CE                     
  4838                           ;C:/Users/bruno/OneDrive/Documentos/ProgramacaoEmbarcada/projeto_final.X/main.c: 748:   
      +                                            lcdCommand(0xC0);
  4839  0066CE  0EC0               	movlw	192
  4840  0066D0  EC15  F02B         	call	_lcdCommand
  4841  0066D4                     
  4842                           ;C:/Users/bruno/OneDrive/Documentos/ProgramacaoEmbarcada/projeto_final.X/main.c: 749:   
      +                                            for (i = 0; i < 16; i++) {
  4843  0066D4  0E00               	movlw	0
  4844  0066D6  6E61               	movwf	(tocarAlarme@i+1)^0,c
  4845  0066D8  0E00               	movlw	0
  4846  0066DA  6E60               	movwf	tocarAlarme@i^0,c
  4847  0066DC                     l3974:
  4848                           
  4849                           ;C:/Users/bruno/OneDrive/Documentos/ProgramacaoEmbarcada/projeto_final.X/main.c: 750:   
      +                                                lcdData(' ');
  4850  0066DC  0E20               	movlw	32
  4851  0066DE  EC77  F029         	call	_lcdData
  4852  0066E2                     
  4853                           ;C:/Users/bruno/OneDrive/Documentos/ProgramacaoEmbarcada/projeto_final.X/main.c: 751:   
      +                                            }
  4854  0066E2  4A60               	infsnz	tocarAlarme@i^0,f,c
  4855  0066E4  2A61               	incf	(tocarAlarme@i+1)^0,f,c
  4856  0066E6  BE61               	btfsc	(tocarAlarme@i+1)^0,7,c
  4857  0066E8  EF7F  F033         	goto	u3551
  4858  0066EC  5061               	movf	(tocarAlarme@i+1)^0,w,c
  4859  0066EE  E109               	bnz	u3550
  4860  0066F0  0E10               	movlw	16
  4861  0066F2  5C60               	subwf	tocarAlarme@i^0,w,c
  4862  0066F4  A0D8               	btfss	status,0,c
  4863  0066F6  EF7F  F033         	goto	u3551
  4864  0066FA  EF81  F033         	goto	u3550
  4865  0066FE                     u3551:
  4866  0066FE  EF6E  F033         	goto	l3974
  4867  006702                     u3550:
  4868  006702                     
  4869                           ;C:/Users/bruno/OneDrive/Documentos/ProgramacaoEmbarcada/projeto_final.X/main.c: 753:   
      +                                            cont = 0;
  4870  006702  0E00               	movlw	0
  4871  006704  6E5F               	movwf	(tocarAlarme@cont+1)^0,c
  4872  006706  0E00               	movlw	0
  4873  006708  6E5E               	movwf	tocarAlarme@cont^0,c
  4874  00670A                     l3982:
  4875                           
  4876                           ;C:/Users/bruno/OneDrive/Documentos/ProgramacaoEmbarcada/projeto_final.X/main.c: 756:   
      +                                    if (((tecla) & (1<<(8)))) {
  4877  00670A  A077               	btfss	(_tecla+1)^0,0,c
  4878  00670C  EF8A  F033         	goto	u3561
  4879  006710  EF8C  F033         	goto	u3560
  4880  006714                     u3561:
  4881  006714  EF65  F031         	goto	l3788
  4882  006718                     u3560:
  4883  006718                     
  4884                           ;C:/Users/bruno/OneDrive/Documentos/ProgramacaoEmbarcada/projeto_final.X/main.c: 757:   
      +                                        rtc_r();
  4885  006718  EC4A  F02D         	call	_rtc_r	;wreg free
  4886  00671C                     
  4887                           ;C:/Users/bruno/OneDrive/Documentos/ProgramacaoEmbarcada/projeto_final.X/main.c: 758:   
      +                                        tmp = ((time[6] - 48)*10) + (time[7] - 48) + ((tempo_son[0] - 48)*10) + (t
      +                          empo_son[1] - 48);
  4888  00671C  5017               	movf	(_time+6)^0,w,c	;volatile
  4889  00671E  0D0A               	mullw	10
  4890  006720  CFF3 F056          	movff	prodl,??_tocarAlarme
  4891  006724  CFF4 F057          	movff	prodh,??_tocarAlarme+1
  4892  006728  5074               	movf	_tempo_son^0,w,c
  4893  00672A  0D0A               	mullw	10
  4894  00672C  50F3               	movf	243,w,c
  4895  00672E  2656               	addwf	??_tocarAlarme^0,f,c
  4896  006730  50F4               	movf	244,w,c
  4897  006732  2257               	addwfc	(??_tocarAlarme+1)^0,f,c
  4898  006734  5075               	movf	(_tempo_son+1)^0,w,c
  4899  006736  2656               	addwf	??_tocarAlarme^0,f,c
  4900  006738  0E00               	movlw	0
  4901  00673A  2257               	addwfc	(??_tocarAlarme+1)^0,f,c
  4902  00673C  5018               	movf	(_time+7)^0,w,c	;volatile
  4903  00673E  2656               	addwf	??_tocarAlarme^0,f,c
  4904  006740  0E00               	movlw	0
  4905  006742  2257               	addwfc	(??_tocarAlarme+1)^0,f,c
  4906  006744  0EE0               	movlw	224
  4907  006746  2456               	addwf	??_tocarAlarme^0,w,c
  4908  006748  6E5C               	movwf	tocarAlarme@tmp^0,c
  4909  00674A  0EFB               	movlw	251
  4910  00674C  2057               	addwfc	(??_tocarAlarme+1)^0,w,c
  4911  00674E  6E5D               	movwf	(tocarAlarme@tmp+1)^0,c
  4912  006750                     
  4913                           ;C:/Users/bruno/OneDrive/Documentos/ProgramacaoEmbarcada/projeto_final.X/main.c: 759:   
      +                                        if (tmp > 59) {
  4914  006750  BE5D               	btfsc	(tocarAlarme@tmp+1)^0,7,c
  4915  006752  EFB4  F033         	goto	u3571
  4916  006756  505D               	movf	(tocarAlarme@tmp+1)^0,w,c
  4917  006758  E109               	bnz	u3570
  4918  00675A  0E3C               	movlw	60
  4919  00675C  5C5C               	subwf	tocarAlarme@tmp^0,w,c
  4920  00675E  A0D8               	btfss	status,0,c
  4921  006760  EFB4  F033         	goto	u3571
  4922  006764  EFB6  F033         	goto	u3570
  4923  006768                     u3571:
  4924  006768  EFD1  F033         	goto	l577
  4925  00676C                     u3570:
  4926  00676C                     
  4927                           ;C:/Users/bruno/OneDrive/Documentos/ProgramacaoEmbarcada/projeto_final.X/main.c: 760:   
      +                                            hor_alarm[4] = ((tmp / 60) + 48);
  4928  00676C  C05C  F04A         	movff	tocarAlarme@tmp,___awdiv@dividend
  4929  006770  C05D  F04B         	movff	tocarAlarme@tmp+1,___awdiv@dividend+1
  4930  006774  0E00               	movlw	0
  4931  006776  6E4D               	movwf	(___awdiv@divisor+1)^0,c
  4932  006778  0E3C               	movlw	60
  4933  00677A  6E4C               	movwf	___awdiv@divisor^0,c
  4934  00677C  EC80  F02C         	call	___awdiv	;wreg free
  4935  006780  504A               	movf	?___awdiv^0,w,c
  4936  006782  0F30               	addlw	48
  4937  006784  6E68               	movwf	(_hor_alarm+4)^0,c
  4938                           
  4939                           ;C:/Users/bruno/OneDrive/Documentos/ProgramacaoEmbarcada/projeto_final.X/main.c: 761:   
      +                                            tmp %= 60;
  4940  006786  C05C  F04A         	movff	tocarAlarme@tmp,___awmod@dividend
  4941  00678A  C05D  F04B         	movff	tocarAlarme@tmp+1,___awmod@dividend+1
  4942  00678E  0E00               	movlw	0
  4943  006790  6E4D               	movwf	(___awmod@divisor+1)^0,c
  4944  006792  0E3C               	movlw	60
  4945  006794  6E4C               	movwf	___awmod@divisor^0,c
  4946  006796  EC28  F02C         	call	___awmod	;wreg free
  4947  00679A  C04A  F05C         	movff	?___awmod,tocarAlarme@tmp
  4948  00679E  C04B  F05D         	movff	?___awmod+1,tocarAlarme@tmp+1
  4949  0067A2                     l577:
  4950                           
  4951                           ;C:/Users/bruno/OneDrive/Documentos/ProgramacaoEmbarcada/projeto_final.X/main.c: 764:   
      +                                        hor_alarm[6] = ((tmp / 10) + 48);
  4952  0067A2  C05C  F04A         	movff	tocarAlarme@tmp,___awdiv@dividend
  4953  0067A6  C05D  F04B         	movff	tocarAlarme@tmp+1,___awdiv@dividend+1
  4954  0067AA  0E00               	movlw	0
  4955  0067AC  6E4D               	movwf	(___awdiv@divisor+1)^0,c
  4956  0067AE  0E0A               	movlw	10
  4957  0067B0  6E4C               	movwf	___awdiv@divisor^0,c
  4958  0067B2  EC80  F02C         	call	___awdiv	;wreg free
  4959  0067B6  504A               	movf	?___awdiv^0,w,c
  4960  0067B8  0F30               	addlw	48
  4961  0067BA  6E6A               	movwf	(_hor_alarm+6)^0,c
  4962                           
  4963                           ;C:/Users/bruno/OneDrive/Documentos/ProgramacaoEmbarcada/projeto_final.X/main.c: 765:   
      +                                        hor_alarm[7] = ((tmp % 10) + 48);
  4964  0067BC  C05C  F04A         	movff	tocarAlarme@tmp,___awmod@dividend
  4965  0067C0  C05D  F04B         	movff	tocarAlarme@tmp+1,___awmod@dividend+1
  4966  0067C4  0E00               	movlw	0
  4967  0067C6  6E4D               	movwf	(___awmod@divisor+1)^0,c
  4968  0067C8  0E0A               	movlw	10
  4969  0067CA  6E4C               	movwf	___awmod@divisor^0,c
  4970  0067CC  EC28  F02C         	call	___awmod	;wreg free
  4971  0067D0  504A               	movf	?___awmod^0,w,c
  4972  0067D2  0F30               	addlw	48
  4973  0067D4  6E6B               	movwf	(_hor_alarm+7)^0,c
  4974                           
  4975                           ;C:/Users/bruno/OneDrive/Documentos/ProgramacaoEmbarcada/projeto_final.X/main.c: 767:   
      +                                        lcdCommand(0x80);
  4976  0067D6  0E80               	movlw	128
  4977  0067D8  EC15  F02B         	call	_lcdCommand
  4978  0067DC                     
  4979                           ;C:/Users/bruno/OneDrive/Documentos/ProgramacaoEmbarcada/projeto_final.X/main.c: 768:   
      +                                        for (i = 0; i < 16; i++) {
  4980  0067DC  0E00               	movlw	0
  4981  0067DE  6E61               	movwf	(tocarAlarme@i+1)^0,c
  4982  0067E0  0E00               	movlw	0
  4983  0067E2  6E60               	movwf	tocarAlarme@i^0,c
  4984  0067E4                     l3998:
  4985                           
  4986                           ;C:/Users/bruno/OneDrive/Documentos/ProgramacaoEmbarcada/projeto_final.X/main.c: 769:   
      +                                            lcdData(msg_alarm_ativ[5][i]);
  4987  0067E4  0E50               	movlw	low (_msg_alarm_ativ+80)
  4988  0067E6  2460               	addwf	tocarAlarme@i^0,w,c
  4989  0067E8  6ED9               	movwf	fsr2l,c
  4990  0067EA  0E02               	movlw	high (_msg_alarm_ativ+80)
  4991  0067EC  2061               	addwfc	(tocarAlarme@i+1)^0,w,c
  4992  0067EE  6EDA               	movwf	fsr2h,c
  4993  0067F0  50DF               	movf	indf2,w,c
  4994  0067F2  EC77  F029         	call	_lcdData
  4995  0067F6                     
  4996                           ;C:/Users/bruno/OneDrive/Documentos/ProgramacaoEmbarcada/projeto_final.X/main.c: 770:   
      +                                        }
  4997  0067F6  4A60               	infsnz	tocarAlarme@i^0,f,c
  4998  0067F8  2A61               	incf	(tocarAlarme@i+1)^0,f,c
  4999  0067FA  BE61               	btfsc	(tocarAlarme@i+1)^0,7,c
  5000  0067FC  EF09  F034         	goto	u3581
  5001  006800  5061               	movf	(tocarAlarme@i+1)^0,w,c
  5002  006802  E109               	bnz	u3580
  5003  006804  0E10               	movlw	16
  5004  006806  5C60               	subwf	tocarAlarme@i^0,w,c
  5005  006808  A0D8               	btfss	status,0,c
  5006  00680A  EF09  F034         	goto	u3581
  5007  00680E  EF0B  F034         	goto	u3580
  5008  006812                     u3581:
  5009  006812  EFF2  F033         	goto	l3998
  5010  006816                     u3580:
  5011  006816                     
  5012                           ;C:/Users/bruno/OneDrive/Documentos/ProgramacaoEmbarcada/projeto_final.X/main.c: 772:   
      +                                        lcdCommand(0xC0);
  5013  006816  0EC0               	movlw	192
  5014  006818  EC15  F02B         	call	_lcdCommand
  5015  00681C                     
  5016                           ;C:/Users/bruno/OneDrive/Documentos/ProgramacaoEmbarcada/projeto_final.X/main.c: 773:   
      +                                        for (i = 0; i < 16; i++) {
  5017  00681C  0E00               	movlw	0
  5018  00681E  6E61               	movwf	(tocarAlarme@i+1)^0,c
  5019  006820  0E00               	movlw	0
  5020  006822  6E60               	movwf	tocarAlarme@i^0,c
  5021  006824                     l4012:
  5022                           
  5023                           ;C:/Users/bruno/OneDrive/Documentos/ProgramacaoEmbarcada/projeto_final.X/main.c: 774:   
      +                                            lcdData(' ');
  5024  006824  0E20               	movlw	32
  5025  006826  EC77  F029         	call	_lcdData
  5026  00682A                     
  5027                           ;C:/Users/bruno/OneDrive/Documentos/ProgramacaoEmbarcada/projeto_final.X/main.c: 775:   
      +                                        }
  5028  00682A  4A60               	infsnz	tocarAlarme@i^0,f,c
  5029  00682C  2A61               	incf	(tocarAlarme@i+1)^0,f,c
  5030  00682E  BE61               	btfsc	(tocarAlarme@i+1)^0,7,c
  5031  006830  EF23  F034         	goto	u3591
  5032  006834  5061               	movf	(tocarAlarme@i+1)^0,w,c
  5033  006836  E109               	bnz	u3590
  5034  006838  0E10               	movlw	16
  5035  00683A  5C60               	subwf	tocarAlarme@i^0,w,c
  5036  00683C  A0D8               	btfss	status,0,c
  5037  00683E  EF23  F034         	goto	u3591
  5038  006842  EF25  F034         	goto	u3590
  5039  006846                     u3591:
  5040  006846  EF12  F034         	goto	l4012
  5041  00684A                     u3590:
  5042  00684A                     
  5043                           ;C:/Users/bruno/OneDrive/Documentos/ProgramacaoEmbarcada/projeto_final.X/main.c: 777:   
      +                                        lcdCommand(0x90);
  5044  00684A  0E90               	movlw	144
  5045  00684C  EC15  F02B         	call	_lcdCommand
  5046  006850                     
  5047                           ;C:/Users/bruno/OneDrive/Documentos/ProgramacaoEmbarcada/projeto_final.X/main.c: 778:   
      +                                        for (i = 0; i < 16; i++) {
  5048  006850  0E00               	movlw	0
  5049  006852  6E61               	movwf	(tocarAlarme@i+1)^0,c
  5050  006854  0E00               	movlw	0
  5051  006856  6E60               	movwf	tocarAlarme@i^0,c
  5052  006858                     l4026:
  5053                           
  5054                           ;C:/Users/bruno/OneDrive/Documentos/ProgramacaoEmbarcada/projeto_final.X/main.c: 779:   
      +                                            lcdData(msg_alarm_ativ[6][i]);
  5055  006858  0E60               	movlw	low (_msg_alarm_ativ+96)
  5056  00685A  2460               	addwf	tocarAlarme@i^0,w,c
  5057  00685C  6ED9               	movwf	fsr2l,c
  5058  00685E  0E02               	movlw	high (_msg_alarm_ativ+96)
  5059  006860  2061               	addwfc	(tocarAlarme@i+1)^0,w,c
  5060  006862  6EDA               	movwf	fsr2h,c
  5061  006864  50DF               	movf	indf2,w,c
  5062  006866  EC77  F029         	call	_lcdData
  5063  00686A                     
  5064                           ;C:/Users/bruno/OneDrive/Documentos/ProgramacaoEmbarcada/projeto_final.X/main.c: 780:   
      +                                        }
  5065  00686A  4A60               	infsnz	tocarAlarme@i^0,f,c
  5066  00686C  2A61               	incf	(tocarAlarme@i+1)^0,f,c
  5067  00686E  BE61               	btfsc	(tocarAlarme@i+1)^0,7,c
  5068  006870  EF43  F034         	goto	u3601
  5069  006874  5061               	movf	(tocarAlarme@i+1)^0,w,c
  5070  006876  E109               	bnz	u3600
  5071  006878  0E10               	movlw	16
  5072  00687A  5C60               	subwf	tocarAlarme@i^0,w,c
  5073  00687C  A0D8               	btfss	status,0,c
  5074  00687E  EF43  F034         	goto	u3601
  5075  006882  EF45  F034         	goto	u3600
  5076  006886                     u3601:
  5077  006886  EF2C  F034         	goto	l4026
  5078  00688A                     u3600:
  5079  00688A                     
  5080                           ;C:/Users/bruno/OneDrive/Documentos/ProgramacaoEmbarcada/projeto_final.X/main.c: 782:   
      +                                        lcdCommand(0xD0);
  5081  00688A  0ED0               	movlw	208
  5082  00688C  EC15  F02B         	call	_lcdCommand
  5083  006890                     
  5084                           ;C:/Users/bruno/OneDrive/Documentos/ProgramacaoEmbarcada/projeto_final.X/main.c: 783:   
      +                                        for (i = 0; i < 16; i++) {
  5085  006890  0E00               	movlw	0
  5086  006892  6E61               	movwf	(tocarAlarme@i+1)^0,c
  5087  006894  0E00               	movlw	0
  5088  006896  6E60               	movwf	tocarAlarme@i^0,c
  5089  006898                     l4040:
  5090                           
  5091                           ;C:/Users/bruno/OneDrive/Documentos/ProgramacaoEmbarcada/projeto_final.X/main.c: 784:   
      +                                            lcdData(hor_alarm[i]);
  5092  006898  0E64               	movlw	low _hor_alarm
  5093  00689A  2460               	addwf	tocarAlarme@i^0,w,c
  5094  00689C  6ED9               	movwf	fsr2l,c
  5095  00689E  0E00               	movlw	high _hor_alarm
  5096  0068A0  2061               	addwfc	(tocarAlarme@i+1)^0,w,c
  5097  0068A2  6EDA               	movwf	fsr2h,c
  5098  0068A4  50DF               	movf	indf2,w,c
  5099  0068A6  EC77  F029         	call	_lcdData
  5100  0068AA                     
  5101                           ;C:/Users/bruno/OneDrive/Documentos/ProgramacaoEmbarcada/projeto_final.X/main.c: 785:   
      +                                        }
  5102  0068AA  4A60               	infsnz	tocarAlarme@i^0,f,c
  5103  0068AC  2A61               	incf	(tocarAlarme@i+1)^0,f,c
  5104  0068AE  BE61               	btfsc	(tocarAlarme@i+1)^0,7,c
  5105  0068B0  EF63  F034         	goto	u3611
  5106  0068B4  5061               	movf	(tocarAlarme@i+1)^0,w,c
  5107  0068B6  E109               	bnz	u3610
  5108  0068B8  0E10               	movlw	16
  5109  0068BA  5C60               	subwf	tocarAlarme@i^0,w,c
  5110  0068BC  A0D8               	btfss	status,0,c
  5111  0068BE  EF63  F034         	goto	u3611
  5112  0068C2  EF65  F034         	goto	u3610
  5113  0068C6                     u3611:
  5114  0068C6  EF4C  F034         	goto	l4040
  5115  0068CA                     u3610:
  5116  0068CA                     l4046:
  5117                           
  5118                           ;C:/Users/bruno/OneDrive/Documentos/ProgramacaoEmbarcada/projeto_final.X/main.c: 787:   
      +                                        atraso_ms(3000);
  5119  0068CA  0E0B               	movlw	11
  5120  0068CC  6E4B               	movwf	(atraso_ms@valor+1)^0,c
  5121  0068CE  0EB8               	movlw	184
  5122  0068D0  6E4A               	movwf	atraso_ms@valor^0,c
  5123  0068D2  ECFF  F029         	call	_atraso_ms	;wreg free
  5124                           
  5125                           ;C:/Users/bruno/OneDrive/Documentos/ProgramacaoEmbarcada/projeto_final.X/main.c: 788:   
      +                                        break;
  5126  0068D6  EFE8  F035         	goto	l4178
  5127  0068DA                     l4048:
  5128                           
  5129                           ; BSR set to: 0
  5130                           ;C:/Users/bruno/OneDrive/Documentos/ProgramacaoEmbarcada/projeto_final.X/main.c: 793:   
      +                                lcdCommand(0x80);
  5131  0068DA  0E80               	movlw	128
  5132  0068DC  EC15  F02B         	call	_lcdCommand
  5133  0068E0                     
  5134                           ;C:/Users/bruno/OneDrive/Documentos/ProgramacaoEmbarcada/projeto_final.X/main.c: 794:   
      +                                for (i = 0; i < 16; i++) {
  5135  0068E0  0E00               	movlw	0
  5136  0068E2  6E61               	movwf	(tocarAlarme@i+1)^0,c
  5137  0068E4  0E00               	movlw	0
  5138  0068E6  6E60               	movwf	tocarAlarme@i^0,c
  5139  0068E8                     l4056:
  5140                           
  5141                           ;C:/Users/bruno/OneDrive/Documentos/ProgramacaoEmbarcada/projeto_final.X/main.c: 795:   
      +                                    lcdData(hor_alarm[i]);
  5142  0068E8  0E64               	movlw	low _hor_alarm
  5143  0068EA  2460               	addwf	tocarAlarme@i^0,w,c
  5144  0068EC  6ED9               	movwf	fsr2l,c
  5145  0068EE  0E00               	movlw	high _hor_alarm
  5146  0068F0  2061               	addwfc	(tocarAlarme@i+1)^0,w,c
  5147  0068F2  6EDA               	movwf	fsr2h,c
  5148  0068F4  50DF               	movf	indf2,w,c
  5149  0068F6  EC77  F029         	call	_lcdData
  5150  0068FA                     
  5151                           ;C:/Users/bruno/OneDrive/Documentos/ProgramacaoEmbarcada/projeto_final.X/main.c: 796:   
      +                                }
  5152  0068FA  4A60               	infsnz	tocarAlarme@i^0,f,c
  5153  0068FC  2A61               	incf	(tocarAlarme@i+1)^0,f,c
  5154  0068FE  BE61               	btfsc	(tocarAlarme@i+1)^0,7,c
  5155  006900  EF8B  F034         	goto	u3621
  5156  006904  5061               	movf	(tocarAlarme@i+1)^0,w,c
  5157  006906  E109               	bnz	u3620
  5158  006908  0E10               	movlw	16
  5159  00690A  5C60               	subwf	tocarAlarme@i^0,w,c
  5160  00690C  A0D8               	btfss	status,0,c
  5161  00690E  EF8B  F034         	goto	u3621
  5162  006912  EF8D  F034         	goto	u3620
  5163  006916                     u3621:
  5164  006916  EF74  F034         	goto	l4056
  5165  00691A                     u3620:
  5166  00691A                     
  5167                           ;C:/Users/bruno/OneDrive/Documentos/ProgramacaoEmbarcada/projeto_final.X/main.c: 799:   
      +                                lcdCommand(0xC0);
  5168  00691A  0EC0               	movlw	192
  5169  00691C  EC15  F02B         	call	_lcdCommand
  5170  006920                     
  5171                           ;C:/Users/bruno/OneDrive/Documentos/ProgramacaoEmbarcada/projeto_final.X/main.c: 800:   
      +                                for (i = 0; i < 16; i++) {
  5172  006920  0E00               	movlw	0
  5173  006922  6E61               	movwf	(tocarAlarme@i+1)^0,c
  5174  006924  0E00               	movlw	0
  5175  006926  6E60               	movwf	tocarAlarme@i^0,c
  5176  006928                     l4070:
  5177                           
  5178                           ;C:/Users/bruno/OneDrive/Documentos/ProgramacaoEmbarcada/projeto_final.X/main.c: 801:   
      +                                    lcdData(' ');
  5179  006928  0E20               	movlw	32
  5180  00692A  EC77  F029         	call	_lcdData
  5181  00692E                     
  5182                           ;C:/Users/bruno/OneDrive/Documentos/ProgramacaoEmbarcada/projeto_final.X/main.c: 802:   
      +                                }
  5183  00692E  4A60               	infsnz	tocarAlarme@i^0,f,c
  5184  006930  2A61               	incf	(tocarAlarme@i+1)^0,f,c
  5185  006932  BE61               	btfsc	(tocarAlarme@i+1)^0,7,c
  5186  006934  EFA5  F034         	goto	u3631
  5187  006938  5061               	movf	(tocarAlarme@i+1)^0,w,c
  5188  00693A  E109               	bnz	u3630
  5189  00693C  0E10               	movlw	16
  5190  00693E  5C60               	subwf	tocarAlarme@i^0,w,c
  5191  006940  A0D8               	btfss	status,0,c
  5192  006942  EFA5  F034         	goto	u3631
  5193  006946  EFA7  F034         	goto	u3630
  5194  00694A                     u3631:
  5195  00694A  EF94  F034         	goto	l4070
  5196  00694E                     u3630:
  5197  00694E                     
  5198                           ;C:/Users/bruno/OneDrive/Documentos/ProgramacaoEmbarcada/projeto_final.X/main.c: 805:   
      +                                lcdCommand(0x90);
  5199  00694E  0E90               	movlw	144
  5200  006950  EC15  F02B         	call	_lcdCommand
  5201  006954                     
  5202                           ;C:/Users/bruno/OneDrive/Documentos/ProgramacaoEmbarcada/projeto_final.X/main.c: 806:   
      +                                for (i = 0; i < 16; i++) {
  5203  006954  0E00               	movlw	0
  5204  006956  6E61               	movwf	(tocarAlarme@i+1)^0,c
  5205  006958  0E00               	movlw	0
  5206  00695A  6E60               	movwf	tocarAlarme@i^0,c
  5207  00695C                     l4084:
  5208                           
  5209                           ;C:/Users/bruno/OneDrive/Documentos/ProgramacaoEmbarcada/projeto_final.X/main.c: 807:   
      +                                    lcdData(msg_alarm_ativ[0][i]);
  5210  00695C  0E00               	movlw	low _msg_alarm_ativ
  5211  00695E  2460               	addwf	tocarAlarme@i^0,w,c
  5212  006960  6ED9               	movwf	fsr2l,c
  5213  006962  0E02               	movlw	high _msg_alarm_ativ
  5214  006964  2061               	addwfc	(tocarAlarme@i+1)^0,w,c
  5215  006966  6EDA               	movwf	fsr2h,c
  5216  006968  50DF               	movf	indf2,w,c
  5217  00696A  EC77  F029         	call	_lcdData
  5218  00696E                     
  5219                           ;C:/Users/bruno/OneDrive/Documentos/ProgramacaoEmbarcada/projeto_final.X/main.c: 808:   
      +                                }
  5220  00696E  4A60               	infsnz	tocarAlarme@i^0,f,c
  5221  006970  2A61               	incf	(tocarAlarme@i+1)^0,f,c
  5222  006972  BE61               	btfsc	(tocarAlarme@i+1)^0,7,c
  5223  006974  EFC5  F034         	goto	u3641
  5224  006978  5061               	movf	(tocarAlarme@i+1)^0,w,c
  5225  00697A  E109               	bnz	u3640
  5226  00697C  0E10               	movlw	16
  5227  00697E  5C60               	subwf	tocarAlarme@i^0,w,c
  5228  006980  A0D8               	btfss	status,0,c
  5229  006982  EFC5  F034         	goto	u3641
  5230  006986  EFC7  F034         	goto	u3640
  5231  00698A                     u3641:
  5232  00698A  EFAE  F034         	goto	l4084
  5233  00698E                     u3640:
  5234  00698E                     
  5235                           ;C:/Users/bruno/OneDrive/Documentos/ProgramacaoEmbarcada/projeto_final.X/main.c: 811:   
      +                                lcdCommand(0xD0);
  5236  00698E  0ED0               	movlw	208
  5237  006990  EC15  F02B         	call	_lcdCommand
  5238  006994                     
  5239                           ;C:/Users/bruno/OneDrive/Documentos/ProgramacaoEmbarcada/projeto_final.X/main.c: 812:   
      +                                for (i = 0; i < 16; i++) {
  5240  006994  0E00               	movlw	0
  5241  006996  6E61               	movwf	(tocarAlarme@i+1)^0,c
  5242  006998  0E00               	movlw	0
  5243  00699A  6E60               	movwf	tocarAlarme@i^0,c
  5244  00699C                     l4098:
  5245                           
  5246                           ;C:/Users/bruno/OneDrive/Documentos/ProgramacaoEmbarcada/projeto_final.X/main.c: 813:   
      +                                    lcdData(msg_alarm_ativ[1][i]);
  5247  00699C  0E10               	movlw	low (_msg_alarm_ativ+16)
  5248  00699E  2460               	addwf	tocarAlarme@i^0,w,c
  5249  0069A0  6ED9               	movwf	fsr2l,c
  5250  0069A2  0E02               	movlw	high (_msg_alarm_ativ+16)
  5251  0069A4  2061               	addwfc	(tocarAlarme@i+1)^0,w,c
  5252  0069A6  6EDA               	movwf	fsr2h,c
  5253  0069A8  50DF               	movf	indf2,w,c
  5254  0069AA  EC77  F029         	call	_lcdData
  5255  0069AE                     
  5256                           ;C:/Users/bruno/OneDrive/Documentos/ProgramacaoEmbarcada/projeto_final.X/main.c: 814:   
      +                                }
  5257  0069AE  4A60               	infsnz	tocarAlarme@i^0,f,c
  5258  0069B0  2A61               	incf	(tocarAlarme@i+1)^0,f,c
  5259  0069B2  BE61               	btfsc	(tocarAlarme@i+1)^0,7,c
  5260  0069B4  EFE5  F034         	goto	u3651
  5261  0069B8  5061               	movf	(tocarAlarme@i+1)^0,w,c
  5262  0069BA  E109               	bnz	u3650
  5263  0069BC  0E10               	movlw	16
  5264  0069BE  5C60               	subwf	tocarAlarme@i^0,w,c
  5265  0069C0  A0D8               	btfss	status,0,c
  5266  0069C2  EFE5  F034         	goto	u3651
  5267  0069C6  EFE7  F034         	goto	u3650
  5268  0069CA                     u3651:
  5269  0069CA  EFCE  F034         	goto	l4098
  5270  0069CE                     u3650:
  5271  0069CE                     l4104:
  5272                           
  5273                           ;C:/Users/bruno/OneDrive/Documentos/ProgramacaoEmbarcada/projeto_final.X/main.c: 817:   
      +                                    kpDebounce();
  5274  0069CE  EC2E  F02E         	call	_kpDebounce	;wreg free
  5275  0069D2                     
  5276                           ;C:/Users/bruno/OneDrive/Documentos/ProgramacaoEmbarcada/projeto_final.X/main.c: 818:   
      +                                    if (kpRead() != tecla) {
  5277  0069D2  EC16  F029         	call	_kpRead	;wreg free
  5278  0069D6  5076               	movf	_tecla^0,w,c
  5279  0069D8  184A               	xorwf	?_kpRead^0,w,c
  5280  0069DA  E109               	bnz	u3660
  5281  0069DC  5077               	movf	(_tecla+1)^0,w,c
  5282  0069DE  184B               	xorwf	(?_kpRead+1)^0,w,c
  5283  0069E0  B4D8               	btfsc	status,2,c
  5284  0069E2  EFF5  F034         	goto	u3661
  5285  0069E6  EFF7  F034         	goto	u3660
  5286  0069EA                     u3661:
  5287  0069EA  EFE7  F034         	goto	l4104
  5288  0069EE                     u3660:
  5289  0069EE                     
  5290                           ;C:/Users/bruno/OneDrive/Documentos/ProgramacaoEmbarcada/projeto_final.X/main.c: 819:   
      +                                        tecla = kpRead();
  5291  0069EE  EC16  F029         	call	_kpRead	;wreg free
  5292  0069F2  C04A  F076         	movff	?_kpRead,_tecla
  5293  0069F6  C04B  F077         	movff	?_kpRead+1,_tecla+1
  5294  0069FA                     
  5295                           ;C:/Users/bruno/OneDrive/Documentos/ProgramacaoEmbarcada/projeto_final.X/main.c: 822:   
      +                                        if (((tecla) & (1<<(0)))) {
  5296  0069FA  A076               	btfss	_tecla^0,0,c
  5297  0069FC  EF02  F035         	goto	u3671
  5298  006A00  EF04  F035         	goto	u3670
  5299  006A04                     u3671:
  5300  006A04  EF06  F035         	goto	l597
  5301  006A08                     u3670:
  5302  006A08  EFE8  F035         	goto	l4178
  5303  006A0C                     l597:
  5304                           
  5305                           ;C:/Users/bruno/OneDrive/Documentos/ProgramacaoEmbarcada/projeto_final.X/main.c: 827:   
      +                                        if (((tecla) & (1<<(8)))) {
  5306  006A0C  A077               	btfss	(_tecla+1)^0,0,c
  5307  006A0E  EF0B  F035         	goto	u3681
  5308  006A12  EF0D  F035         	goto	u3680
  5309  006A16                     u3681:
  5310  006A16  EFE7  F034         	goto	l4104
  5311  006A1A                     u3680:
  5312  006A1A                     
  5313                           ;C:/Users/bruno/OneDrive/Documentos/ProgramacaoEmbarcada/projeto_final.X/main.c: 828:   
      +                                            rtc_r();
  5314  006A1A  EC4A  F02D         	call	_rtc_r	;wreg free
  5315  006A1E                     
  5316                           ;C:/Users/bruno/OneDrive/Documentos/ProgramacaoEmbarcada/projeto_final.X/main.c: 829:   
      +                                            tmp = ((time[6] - 48)*10) + (time[7] - 48) + ((tempo_son[0] - 48)*10) 
      +                          + (tempo_son[1] - 48);
  5317  006A1E  5017               	movf	(_time+6)^0,w,c	;volatile
  5318  006A20  0D0A               	mullw	10
  5319  006A22  CFF3 F056          	movff	prodl,??_tocarAlarme
  5320  006A26  CFF4 F057          	movff	prodh,??_tocarAlarme+1
  5321  006A2A  5074               	movf	_tempo_son^0,w,c
  5322  006A2C  0D0A               	mullw	10
  5323  006A2E  50F3               	movf	243,w,c
  5324  006A30  2656               	addwf	??_tocarAlarme^0,f,c
  5325  006A32  50F4               	movf	244,w,c
  5326  006A34  2257               	addwfc	(??_tocarAlarme+1)^0,f,c
  5327  006A36  5075               	movf	(_tempo_son+1)^0,w,c
  5328  006A38  2656               	addwf	??_tocarAlarme^0,f,c
  5329  006A3A  0E00               	movlw	0
  5330  006A3C  2257               	addwfc	(??_tocarAlarme+1)^0,f,c
  5331  006A3E  5018               	movf	(_time+7)^0,w,c	;volatile
  5332  006A40  2656               	addwf	??_tocarAlarme^0,f,c
  5333  006A42  0E00               	movlw	0
  5334  006A44  2257               	addwfc	(??_tocarAlarme+1)^0,f,c
  5335  006A46  0EE0               	movlw	224
  5336  006A48  2456               	addwf	??_tocarAlarme^0,w,c
  5337  006A4A  6E5C               	movwf	tocarAlarme@tmp^0,c
  5338  006A4C  0EFB               	movlw	251
  5339  006A4E  2057               	addwfc	(??_tocarAlarme+1)^0,w,c
  5340  006A50  6E5D               	movwf	(tocarAlarme@tmp+1)^0,c
  5341  006A52                     
  5342                           ;C:/Users/bruno/OneDrive/Documentos/ProgramacaoEmbarcada/projeto_final.X/main.c: 830:   
      +                                            if (tmp > 59) {
  5343  006A52  BE5D               	btfsc	(tocarAlarme@tmp+1)^0,7,c
  5344  006A54  EF35  F035         	goto	u3691
  5345  006A58  505D               	movf	(tocarAlarme@tmp+1)^0,w,c
  5346  006A5A  E109               	bnz	u3690
  5347  006A5C  0E3C               	movlw	60
  5348  006A5E  5C5C               	subwf	tocarAlarme@tmp^0,w,c
  5349  006A60  A0D8               	btfss	status,0,c
  5350  006A62  EF35  F035         	goto	u3691
  5351  006A66  EF37  F035         	goto	u3690
  5352  006A6A                     u3691:
  5353  006A6A  EF52  F035         	goto	l600
  5354  006A6E                     u3690:
  5355  006A6E                     
  5356                           ;C:/Users/bruno/OneDrive/Documentos/ProgramacaoEmbarcada/projeto_final.X/main.c: 831:   
      +                                                hor_alarm[4] = ((tmp / 60) + 48);
  5357  006A6E  C05C  F04A         	movff	tocarAlarme@tmp,___awdiv@dividend
  5358  006A72  C05D  F04B         	movff	tocarAlarme@tmp+1,___awdiv@dividend+1
  5359  006A76  0E00               	movlw	0
  5360  006A78  6E4D               	movwf	(___awdiv@divisor+1)^0,c
  5361  006A7A  0E3C               	movlw	60
  5362  006A7C  6E4C               	movwf	___awdiv@divisor^0,c
  5363  006A7E  EC80  F02C         	call	___awdiv	;wreg free
  5364  006A82  504A               	movf	?___awdiv^0,w,c
  5365  006A84  0F30               	addlw	48
  5366  006A86  6E68               	movwf	(_hor_alarm+4)^0,c
  5367                           
  5368                           ;C:/Users/bruno/OneDrive/Documentos/ProgramacaoEmbarcada/projeto_final.X/main.c: 832:   
      +                                                tmp %= 60;
  5369  006A88  C05C  F04A         	movff	tocarAlarme@tmp,___awmod@dividend
  5370  006A8C  C05D  F04B         	movff	tocarAlarme@tmp+1,___awmod@dividend+1
  5371  006A90  0E00               	movlw	0
  5372  006A92  6E4D               	movwf	(___awmod@divisor+1)^0,c
  5373  006A94  0E3C               	movlw	60
  5374  006A96  6E4C               	movwf	___awmod@divisor^0,c
  5375  006A98  EC28  F02C         	call	___awmod	;wreg free
  5376  006A9C  C04A  F05C         	movff	?___awmod,tocarAlarme@tmp
  5377  006AA0  C04B  F05D         	movff	?___awmod+1,tocarAlarme@tmp+1
  5378  006AA4                     l600:
  5379                           
  5380                           ;C:/Users/bruno/OneDrive/Documentos/ProgramacaoEmbarcada/projeto_final.X/main.c: 835:   
      +                                            hor_alarm[6] = ((tmp / 10) + 48);
  5381  006AA4  C05C  F04A         	movff	tocarAlarme@tmp,___awdiv@dividend
  5382  006AA8  C05D  F04B         	movff	tocarAlarme@tmp+1,___awdiv@dividend+1
  5383  006AAC  0E00               	movlw	0
  5384  006AAE  6E4D               	movwf	(___awdiv@divisor+1)^0,c
  5385  006AB0  0E0A               	movlw	10
  5386  006AB2  6E4C               	movwf	___awdiv@divisor^0,c
  5387  006AB4  EC80  F02C         	call	___awdiv	;wreg free
  5388  006AB8  504A               	movf	?___awdiv^0,w,c
  5389  006ABA  0F30               	addlw	48
  5390  006ABC  6E6A               	movwf	(_hor_alarm+6)^0,c
  5391                           
  5392                           ;C:/Users/bruno/OneDrive/Documentos/ProgramacaoEmbarcada/projeto_final.X/main.c: 836:   
      +                                            hor_alarm[7] = ((tmp % 10) + 48);
  5393  006ABE  C05C  F04A         	movff	tocarAlarme@tmp,___awmod@dividend
  5394  006AC2  C05D  F04B         	movff	tocarAlarme@tmp+1,___awmod@dividend+1
  5395  006AC6  0E00               	movlw	0
  5396  006AC8  6E4D               	movwf	(___awmod@divisor+1)^0,c
  5397  006ACA  0E0A               	movlw	10
  5398  006ACC  6E4C               	movwf	___awmod@divisor^0,c
  5399  006ACE  EC28  F02C         	call	___awmod	;wreg free
  5400  006AD2  504A               	movf	?___awmod^0,w,c
  5401  006AD4  0F30               	addlw	48
  5402  006AD6  6E6B               	movwf	(_hor_alarm+7)^0,c
  5403                           
  5404                           ;C:/Users/bruno/OneDrive/Documentos/ProgramacaoEmbarcada/projeto_final.X/main.c: 838:   
      +                                            lcdCommand(0x80);
  5405  006AD8  0E80               	movlw	128
  5406  006ADA  EC15  F02B         	call	_lcdCommand
  5407  006ADE                     
  5408                           ;C:/Users/bruno/OneDrive/Documentos/ProgramacaoEmbarcada/projeto_final.X/main.c: 839:   
      +                                            for (i = 0; i < 16; i++) {
  5409  006ADE  0E00               	movlw	0
  5410  006AE0  6E61               	movwf	(tocarAlarme@i+1)^0,c
  5411  006AE2  0E00               	movlw	0
  5412  006AE4  6E60               	movwf	tocarAlarme@i^0,c
  5413  006AE6                     l4128:
  5414                           
  5415                           ;C:/Users/bruno/OneDrive/Documentos/ProgramacaoEmbarcada/projeto_final.X/main.c: 840:   
      +                                                lcdData(msg_alarm_ativ[5][i]);
  5416  006AE6  0E50               	movlw	low (_msg_alarm_ativ+80)
  5417  006AE8  2460               	addwf	tocarAlarme@i^0,w,c
  5418  006AEA  6ED9               	movwf	fsr2l,c
  5419  006AEC  0E02               	movlw	high (_msg_alarm_ativ+80)
  5420  006AEE  2061               	addwfc	(tocarAlarme@i+1)^0,w,c
  5421  006AF0  6EDA               	movwf	fsr2h,c
  5422  006AF2  50DF               	movf	indf2,w,c
  5423  006AF4  EC77  F029         	call	_lcdData
  5424  006AF8                     
  5425                           ;C:/Users/bruno/OneDrive/Documentos/ProgramacaoEmbarcada/projeto_final.X/main.c: 841:   
      +                                            }
  5426  006AF8  4A60               	infsnz	tocarAlarme@i^0,f,c
  5427  006AFA  2A61               	incf	(tocarAlarme@i+1)^0,f,c
  5428  006AFC  BE61               	btfsc	(tocarAlarme@i+1)^0,7,c
  5429  006AFE  EF8A  F035         	goto	u3701
  5430  006B02  5061               	movf	(tocarAlarme@i+1)^0,w,c
  5431  006B04  E109               	bnz	u3700
  5432  006B06  0E10               	movlw	16
  5433  006B08  5C60               	subwf	tocarAlarme@i^0,w,c
  5434  006B0A  A0D8               	btfss	status,0,c
  5435  006B0C  EF8A  F035         	goto	u3701
  5436  006B10  EF8C  F035         	goto	u3700
  5437  006B14                     u3701:
  5438  006B14  EF73  F035         	goto	l4128
  5439  006B18                     u3700:
  5440  006B18                     
  5441                           ;C:/Users/bruno/OneDrive/Documentos/ProgramacaoEmbarcada/projeto_final.X/main.c: 843:   
      +                                            lcdCommand(0xC0);
  5442  006B18  0EC0               	movlw	192
  5443  006B1A  EC15  F02B         	call	_lcdCommand
  5444  006B1E                     
  5445                           ;C:/Users/bruno/OneDrive/Documentos/ProgramacaoEmbarcada/projeto_final.X/main.c: 844:   
      +                                            for (i = 0; i < 16; i++) {
  5446  006B1E  0E00               	movlw	0
  5447  006B20  6E61               	movwf	(tocarAlarme@i+1)^0,c
  5448  006B22  0E00               	movlw	0
  5449  006B24  6E60               	movwf	tocarAlarme@i^0,c
  5450  006B26                     l4142:
  5451                           
  5452                           ;C:/Users/bruno/OneDrive/Documentos/ProgramacaoEmbarcada/projeto_final.X/main.c: 845:   
      +                                                lcdData(' ');
  5453  006B26  0E20               	movlw	32
  5454  006B28  EC77  F029         	call	_lcdData
  5455  006B2C                     
  5456                           ;C:/Users/bruno/OneDrive/Documentos/ProgramacaoEmbarcada/projeto_final.X/main.c: 846:   
      +                                            }
  5457  006B2C  4A60               	infsnz	tocarAlarme@i^0,f,c
  5458  006B2E  2A61               	incf	(tocarAlarme@i+1)^0,f,c
  5459  006B30  BE61               	btfsc	(tocarAlarme@i+1)^0,7,c
  5460  006B32  EFA4  F035         	goto	u3711
  5461  006B36  5061               	movf	(tocarAlarme@i+1)^0,w,c
  5462  006B38  E109               	bnz	u3710
  5463  006B3A  0E10               	movlw	16
  5464  006B3C  5C60               	subwf	tocarAlarme@i^0,w,c
  5465  006B3E  A0D8               	btfss	status,0,c
  5466  006B40  EFA4  F035         	goto	u3711
  5467  006B44  EFA6  F035         	goto	u3710
  5468  006B48                     u3711:
  5469  006B48  EF93  F035         	goto	l4142
  5470  006B4C                     u3710:
  5471  006B4C                     
  5472                           ;C:/Users/bruno/OneDrive/Documentos/ProgramacaoEmbarcada/projeto_final.X/main.c: 848:   
      +                                            lcdCommand(0x90);
  5473  006B4C  0E90               	movlw	144
  5474  006B4E  EC15  F02B         	call	_lcdCommand
  5475  006B52                     
  5476                           ;C:/Users/bruno/OneDrive/Documentos/ProgramacaoEmbarcada/projeto_final.X/main.c: 849:   
      +                                            for (i = 0; i < 16; i++) {
  5477  006B52  0E00               	movlw	0
  5478  006B54  6E61               	movwf	(tocarAlarme@i+1)^0,c
  5479  006B56  0E00               	movlw	0
  5480  006B58  6E60               	movwf	tocarAlarme@i^0,c
  5481  006B5A                     l4156:
  5482                           
  5483                           ;C:/Users/bruno/OneDrive/Documentos/ProgramacaoEmbarcada/projeto_final.X/main.c: 850:   
      +                                                lcdData(msg_alarm_ativ[6][i]);
  5484  006B5A  0E60               	movlw	low (_msg_alarm_ativ+96)
  5485  006B5C  2460               	addwf	tocarAlarme@i^0,w,c
  5486  006B5E  6ED9               	movwf	fsr2l,c
  5487  006B60  0E02               	movlw	high (_msg_alarm_ativ+96)
  5488  006B62  2061               	addwfc	(tocarAlarme@i+1)^0,w,c
  5489  006B64  6EDA               	movwf	fsr2h,c
  5490  006B66  50DF               	movf	indf2,w,c
  5491  006B68  EC77  F029         	call	_lcdData
  5492  006B6C                     
  5493                           ;C:/Users/bruno/OneDrive/Documentos/ProgramacaoEmbarcada/projeto_final.X/main.c: 851:   
      +                                            }
  5494  006B6C  4A60               	infsnz	tocarAlarme@i^0,f,c
  5495  006B6E  2A61               	incf	(tocarAlarme@i+1)^0,f,c
  5496  006B70  BE61               	btfsc	(tocarAlarme@i+1)^0,7,c
  5497  006B72  EFC4  F035         	goto	u3721
  5498  006B76  5061               	movf	(tocarAlarme@i+1)^0,w,c
  5499  006B78  E109               	bnz	u3720
  5500  006B7A  0E10               	movlw	16
  5501  006B7C  5C60               	subwf	tocarAlarme@i^0,w,c
  5502  006B7E  A0D8               	btfss	status,0,c
  5503  006B80  EFC4  F035         	goto	u3721
  5504  006B84  EFC6  F035         	goto	u3720
  5505  006B88                     u3721:
  5506  006B88  EFAD  F035         	goto	l4156
  5507  006B8C                     u3720:
  5508  006B8C                     
  5509                           ;C:/Users/bruno/OneDrive/Documentos/ProgramacaoEmbarcada/projeto_final.X/main.c: 853:   
      +                                            lcdCommand(0xD0);
  5510  006B8C  0ED0               	movlw	208
  5511  006B8E  EC15  F02B         	call	_lcdCommand
  5512  006B92                     
  5513                           ;C:/Users/bruno/OneDrive/Documentos/ProgramacaoEmbarcada/projeto_final.X/main.c: 854:   
      +                                            for (i = 0; i < 16; i++) {
  5514  006B92  0E00               	movlw	0
  5515  006B94  6E61               	movwf	(tocarAlarme@i+1)^0,c
  5516  006B96  0E00               	movlw	0
  5517  006B98  6E60               	movwf	tocarAlarme@i^0,c
  5518  006B9A                     l4170:
  5519                           
  5520                           ;C:/Users/bruno/OneDrive/Documentos/ProgramacaoEmbarcada/projeto_final.X/main.c: 855:   
      +                                                lcdData(hor_alarm[i]);
  5521  006B9A  0E64               	movlw	low _hor_alarm
  5522  006B9C  2460               	addwf	tocarAlarme@i^0,w,c
  5523  006B9E  6ED9               	movwf	fsr2l,c
  5524  006BA0  0E00               	movlw	high _hor_alarm
  5525  006BA2  2061               	addwfc	(tocarAlarme@i+1)^0,w,c
  5526  006BA4  6EDA               	movwf	fsr2h,c
  5527  006BA6  50DF               	movf	indf2,w,c
  5528  006BA8  EC77  F029         	call	_lcdData
  5529  006BAC                     
  5530                           ;C:/Users/bruno/OneDrive/Documentos/ProgramacaoEmbarcada/projeto_final.X/main.c: 856:   
      +                                            }
  5531  006BAC  4A60               	infsnz	tocarAlarme@i^0,f,c
  5532  006BAE  2A61               	incf	(tocarAlarme@i+1)^0,f,c
  5533  006BB0  BE61               	btfsc	(tocarAlarme@i+1)^0,7,c
  5534  006BB2  EFE4  F035         	goto	u3731
  5535  006BB6  5061               	movf	(tocarAlarme@i+1)^0,w,c
  5536  006BB8  E109               	bnz	u3730
  5537  006BBA  0E10               	movlw	16
  5538  006BBC  5C60               	subwf	tocarAlarme@i^0,w,c
  5539  006BBE  A0D8               	btfss	status,0,c
  5540  006BC0  EFE4  F035         	goto	u3731
  5541  006BC4  EFE6  F035         	goto	u3730
  5542  006BC8                     u3731:
  5543  006BC8  EFCD  F035         	goto	l4170
  5544  006BCC                     u3730:
  5545  006BCC  EF65  F034         	goto	l4046
  5546  006BD0                     l4178:
  5547                           
  5548                           ;C:/Users/bruno/OneDrive/Documentos/ProgramacaoEmbarcada/projeto_final.X/main.c: 865:   
      +                            pwmSet1(0);
  5549  006BD0  0E00               	movlw	0
  5550  006BD2  EC31  F02A         	call	_pwmSet1
  5551  006BD6                     
  5552                           ;C:/Users/bruno/OneDrive/Documentos/ProgramacaoEmbarcada/projeto_final.X/main.c: 866:   
      +                            ((PORTA) &= ~(1<<(5)));
  5553  006BD6  9A80               	bcf	128,5,c	;volatile
  5554  006BD8                     
  5555                           ;C:/Users/bruno/OneDrive/Documentos/ProgramacaoEmbarcada/projeto_final.X/main.c: 867:   
      +                            ((PORTA) &= ~(1<<(4)));
  5556  006BD8  9880               	bcf	128,4,c	;volatile
  5557  006BDA                     
  5558                           ;C:/Users/bruno/OneDrive/Documentos/ProgramacaoEmbarcada/projeto_final.X/main.c: 868:   
      +                            ((PORTA) &= ~(1<<(3)));
  5559  006BDA  9680               	bcf	128,3,c	;volatile
  5560  006BDC                     
  5561                           ;C:/Users/bruno/OneDrive/Documentos/ProgramacaoEmbarcada/projeto_final.X/main.c: 869:   
      +                            ((PORTA) &= ~(1<<(2)));
  5562  006BDC  9480               	bcf	128,2,c	;volatile
  5563  006BDE  0012               	return		;funcret
  5564  006BE0                     __end_of_tocarAlarme:
  5565                           	callstack 0
  5566                           
  5567 ;; *************** function _rtc_r *****************
  5568 ;; Defined at:
  5569 ;;		line 44 in file "C:/Users/bruno/OneDrive/Documentos/ProgramacaoEmbarcada/projeto_final.X/rtc_r.c"
  5570 ;; Parameters:    Size  Location     Type
  5571 ;;		None
  5572 ;; Auto vars:     Size  Location     Type
  5573 ;;  tmp             1    9[COMRAM] unsigned char 
  5574 ;; Return value:  Size  Location     Type
  5575 ;;                  1    wreg      void 
  5576 ;; Registers used:
  5577 ;;		wreg, status,2, status,0, cstack
  5578 ;; Tracked objects:
  5579 ;;		On entry : 0/0
  5580 ;;		On exit  : 0/0
  5581 ;;		Unchanged: 0/0
  5582 ;; Data sizes:     COMRAM   BANK0   BANK1   BANK2   BANK3   BANK4   BANK5
  5583 ;;      Params:         0       0       0       0       0       0       0
  5584 ;;      Locals:         1       0       0       0       0       0       0
  5585 ;;      Temps:          0       0       0       0       0       0       0
  5586 ;;      Totals:         1       0       0       0       0       0       0
  5587 ;;Total ram usage:        1 bytes
  5588 ;; Hardware stack levels used: 1
  5589 ;; Hardware stack levels required when called: 2
  5590 ;; This function calls:
  5591 ;;		_getd
  5592 ;;		_getu
  5593 ;;		_i2c_rb
  5594 ;;		_i2c_start
  5595 ;;		_i2c_stop
  5596 ;;		_i2c_wb
  5597 ;; This function is called by:
  5598 ;;		_main
  5599 ;;		_tocarAlarme
  5600 ;; This function uses a non-reentrant model
  5601 ;;
  5602                           
  5603                           	psect	text2
  5604  005A94                     __ptext2:
  5605                           	callstack 0
  5606  005A94                     _rtc_r:
  5607                           	callstack 27
  5608  005A94                     
  5609                           ;C:/Users/bruno/OneDrive/Documentos/ProgramacaoEmbarcada/projeto_final.X/rtc_r.c: 46:   
      +                          unsigned char tmp;;C:/Users/bruno/OneDrive/Documentos/ProgramacaoEmbarcada/projeto_final
      +                          .X/rtc_r.c: 48:   i2c_start();
  5610  005A94  EC26  F029         	call	_i2c_start	;wreg free
  5611                           
  5612                           ;C:/Users/bruno/OneDrive/Documentos/ProgramacaoEmbarcada/projeto_final.X/rtc_r.c: 49:   
      +                          i2c_wb(0xD0);
  5613  005A98  0ED0               	movlw	208
  5614  005A9A  ECA1  F029         	call	_i2c_wb
  5615                           
  5616                           ;C:/Users/bruno/OneDrive/Documentos/ProgramacaoEmbarcada/projeto_final.X/rtc_r.c: 50:   
      +                          i2c_wb(0);
  5617  005A9E  0E00               	movlw	0
  5618  005AA0  ECA1  F029         	call	_i2c_wb
  5619                           
  5620                           ;C:/Users/bruno/OneDrive/Documentos/ProgramacaoEmbarcada/projeto_final.X/rtc_r.c: 52:   
      +                          i2c_start();
  5621  005AA4  EC26  F029         	call	_i2c_start	;wreg free
  5622                           
  5623                           ;C:/Users/bruno/OneDrive/Documentos/ProgramacaoEmbarcada/projeto_final.X/rtc_r.c: 53:   
      +                          i2c_wb(0xD1);
  5624  005AA8  0ED1               	movlw	209
  5625  005AAA  ECA1  F029         	call	_i2c_wb
  5626                           
  5627                           ;C:/Users/bruno/OneDrive/Documentos/ProgramacaoEmbarcada/projeto_final.X/rtc_r.c: 54:   
      +                          tmp= 0x7F & i2c_rb(1);
  5628  005AAE  0E01               	movlw	1
  5629  005AB0  EC54  F02B         	call	_i2c_rb
  5630  005AB4  0B7F               	andlw	127
  5631  005AB6  6E53               	movwf	rtc_r@tmp^0,c
  5632  005AB8                     
  5633                           ;C:/Users/bruno/OneDrive/Documentos/ProgramacaoEmbarcada/projeto_final.X/rtc_r.c: 55:   
      +                          time[5]=':';
  5634  005AB8  0E3A               	movlw	58
  5635  005ABA  6E16               	movwf	(_time+5)^0,c	;volatile
  5636  005ABC                     
  5637                           ;C:/Users/bruno/OneDrive/Documentos/ProgramacaoEmbarcada/projeto_final.X/rtc_r.c: 56:   
      +                          time[6]=getd(tmp);
  5638  005ABC  5053               	movf	rtc_r@tmp^0,w,c
  5639  005ABE  EC20  F029         	call	_getd
  5640  005AC2  6E17               	movwf	(_time+6)^0,c	;volatile
  5641  005AC4                     
  5642                           ;C:/Users/bruno/OneDrive/Documentos/ProgramacaoEmbarcada/projeto_final.X/rtc_r.c: 57:   
      +                          time[7]=getu(tmp);
  5643  005AC4  5053               	movf	rtc_r@tmp^0,w,c
  5644  005AC6  EC1B  F029         	call	_getu
  5645  005ACA  6E18               	movwf	(_time+7)^0,c	;volatile
  5646  005ACC                     
  5647                           ;C:/Users/bruno/OneDrive/Documentos/ProgramacaoEmbarcada/projeto_final.X/rtc_r.c: 58:   
      +                          time[8]=0;
  5648  005ACC  0E00               	movlw	0
  5649  005ACE  6E19               	movwf	(_time+8)^0,c	;volatile
  5650                           
  5651                           ;C:/Users/bruno/OneDrive/Documentos/ProgramacaoEmbarcada/projeto_final.X/rtc_r.c: 60:   
      +                          tmp= 0x7F & i2c_rb(1);
  5652  005AD0  0E01               	movlw	1
  5653  005AD2  EC54  F02B         	call	_i2c_rb
  5654  005AD6  0B7F               	andlw	127
  5655  005AD8  6E53               	movwf	rtc_r@tmp^0,c
  5656  005ADA                     
  5657                           ;C:/Users/bruno/OneDrive/Documentos/ProgramacaoEmbarcada/projeto_final.X/rtc_r.c: 61:   
      +                          time[2]=':';
  5658  005ADA  0E3A               	movlw	58
  5659  005ADC  6E13               	movwf	(_time+2)^0,c	;volatile
  5660  005ADE                     
  5661                           ;C:/Users/bruno/OneDrive/Documentos/ProgramacaoEmbarcada/projeto_final.X/rtc_r.c: 62:   
      +                          time[3]=getd(tmp);
  5662  005ADE  5053               	movf	rtc_r@tmp^0,w,c
  5663  005AE0  EC20  F029         	call	_getd
  5664  005AE4  6E14               	movwf	(_time+3)^0,c	;volatile
  5665  005AE6                     
  5666                           ;C:/Users/bruno/OneDrive/Documentos/ProgramacaoEmbarcada/projeto_final.X/rtc_r.c: 63:   
      +                          time[4]=getu(tmp);
  5667  005AE6  5053               	movf	rtc_r@tmp^0,w,c
  5668  005AE8  EC1B  F029         	call	_getu
  5669  005AEC  6E15               	movwf	(_time+4)^0,c	;volatile
  5670  005AEE                     
  5671                           ;C:/Users/bruno/OneDrive/Documentos/ProgramacaoEmbarcada/projeto_final.X/rtc_r.c: 65:   
      +                          tmp= 0x3F & i2c_rb(1);
  5672  005AEE  0E01               	movlw	1
  5673  005AF0  EC54  F02B         	call	_i2c_rb
  5674  005AF4  0B3F               	andlw	63
  5675  005AF6  6E53               	movwf	rtc_r@tmp^0,c
  5676  005AF8                     
  5677                           ;C:/Users/bruno/OneDrive/Documentos/ProgramacaoEmbarcada/projeto_final.X/rtc_r.c: 66:   
      +                          time[0]=getd(tmp);
  5678  005AF8  5053               	movf	rtc_r@tmp^0,w,c
  5679  005AFA  EC20  F029         	call	_getd
  5680  005AFE  6E11               	movwf	_time^0,c	;volatile
  5681  005B00                     
  5682                           ;C:/Users/bruno/OneDrive/Documentos/ProgramacaoEmbarcada/projeto_final.X/rtc_r.c: 67:   
      +                          time[1]=getu(tmp);
  5683  005B00  5053               	movf	rtc_r@tmp^0,w,c
  5684  005B02  EC1B  F029         	call	_getu
  5685  005B06  6E12               	movwf	(_time+1)^0,c	;volatile
  5686  005B08                     
  5687                           ;C:/Users/bruno/OneDrive/Documentos/ProgramacaoEmbarcada/projeto_final.X/rtc_r.c: 69:   
      +                          i2c_rb(1);
  5688  005B08  0E01               	movlw	1
  5689  005B0A  EC54  F02B         	call	_i2c_rb
  5690  005B0E                     
  5691                           ;C:/Users/bruno/OneDrive/Documentos/ProgramacaoEmbarcada/projeto_final.X/rtc_r.c: 71:   
      +                          tmp= 0x3F & i2c_rb(1);
  5692  005B0E  0E01               	movlw	1
  5693  005B10  EC54  F02B         	call	_i2c_rb
  5694  005B14  0B3F               	andlw	63
  5695  005B16  6E53               	movwf	rtc_r@tmp^0,c
  5696  005B18                     
  5697                           ;C:/Users/bruno/OneDrive/Documentos/ProgramacaoEmbarcada/projeto_final.X/rtc_r.c: 72:   
      +                          date[0]=getd(tmp);
  5698  005B18  5053               	movf	rtc_r@tmp^0,w,c
  5699  005B1A  EC20  F029         	call	_getd
  5700  005B1E  6E1B               	movwf	_date^0,c	;volatile
  5701  005B20                     
  5702                           ;C:/Users/bruno/OneDrive/Documentos/ProgramacaoEmbarcada/projeto_final.X/rtc_r.c: 73:   
      +                          date[1]=getu(tmp);
  5703  005B20  5053               	movf	rtc_r@tmp^0,w,c
  5704  005B22  EC1B  F029         	call	_getu
  5705  005B26  6E1C               	movwf	(_date+1)^0,c	;volatile
  5706  005B28                     
  5707                           ;C:/Users/bruno/OneDrive/Documentos/ProgramacaoEmbarcada/projeto_final.X/rtc_r.c: 76:   
      +                          tmp= 0x1F & i2c_rb(1);
  5708  005B28  0E01               	movlw	1
  5709  005B2A  EC54  F02B         	call	_i2c_rb
  5710  005B2E  0B1F               	andlw	31
  5711  005B30  6E53               	movwf	rtc_r@tmp^0,c
  5712  005B32                     
  5713                           ;C:/Users/bruno/OneDrive/Documentos/ProgramacaoEmbarcada/projeto_final.X/rtc_r.c: 77:   
      +                          date[2]='/';
  5714  005B32  0E2F               	movlw	47
  5715  005B34  6E1D               	movwf	(_date+2)^0,c	;volatile
  5716                           
  5717                           ;C:/Users/bruno/OneDrive/Documentos/ProgramacaoEmbarcada/projeto_final.X/rtc_r.c: 78:   
      +                          date[3]=getd(tmp);
  5718  005B36  5053               	movf	rtc_r@tmp^0,w,c
  5719  005B38  EC20  F029         	call	_getd
  5720  005B3C  6E1E               	movwf	(_date+3)^0,c	;volatile
  5721                           
  5722                           ;C:/Users/bruno/OneDrive/Documentos/ProgramacaoEmbarcada/projeto_final.X/rtc_r.c: 79:   
      +                          date[4]=getu(tmp);
  5723  005B3E  5053               	movf	rtc_r@tmp^0,w,c
  5724  005B40  EC1B  F029         	call	_getu
  5725  005B44  6E1F               	movwf	(_date+4)^0,c	;volatile
  5726                           
  5727                           ;C:/Users/bruno/OneDrive/Documentos/ProgramacaoEmbarcada/projeto_final.X/rtc_r.c: 81:   
      +                          tmp= i2c_rb(0);
  5728  005B46  0E00               	movlw	0
  5729  005B48  EC54  F02B         	call	_i2c_rb
  5730  005B4C  6E53               	movwf	rtc_r@tmp^0,c
  5731  005B4E                     
  5732                           ;C:/Users/bruno/OneDrive/Documentos/ProgramacaoEmbarcada/projeto_final.X/rtc_r.c: 82:   
      +                          date[5]='/';
  5733  005B4E  0E2F               	movlw	47
  5734  005B50  6E20               	movwf	(_date+5)^0,c	;volatile
  5735  005B52                     
  5736                           ;C:/Users/bruno/OneDrive/Documentos/ProgramacaoEmbarcada/projeto_final.X/rtc_r.c: 83:   
      +                          date[6]=getd(tmp);
  5737  005B52  5053               	movf	rtc_r@tmp^0,w,c
  5738  005B54  EC20  F029         	call	_getd
  5739  005B58  6E21               	movwf	(_date+6)^0,c	;volatile
  5740  005B5A                     
  5741                           ;C:/Users/bruno/OneDrive/Documentos/ProgramacaoEmbarcada/projeto_final.X/rtc_r.c: 84:   
      +                          date[7]=getu(tmp);
  5742  005B5A  5053               	movf	rtc_r@tmp^0,w,c
  5743  005B5C  EC1B  F029         	call	_getu
  5744  005B60  6E22               	movwf	(_date+7)^0,c	;volatile
  5745  005B62                     
  5746                           ;C:/Users/bruno/OneDrive/Documentos/ProgramacaoEmbarcada/projeto_final.X/rtc_r.c: 85:   
      +                          date[8]=0;
  5747  005B62  0E00               	movlw	0
  5748  005B64  6E23               	movwf	(_date+8)^0,c	;volatile
  5749                           
  5750                           ;C:/Users/bruno/OneDrive/Documentos/ProgramacaoEmbarcada/projeto_final.X/rtc_r.c: 87:   
      +                          i2c_stop();
  5751  005B66  EC2E  F029         	call	_i2c_stop	;wreg free
  5752  005B6A  0012               	return		;funcret
  5753  005B6C                     __end_of_rtc_r:
  5754                           	callstack 0
  5755                           
  5756 ;; *************** function _i2c_wb *****************
  5757 ;; Defined at:
  5758 ;;		line 62 in file "C:/Users/bruno/OneDrive/Documentos/ProgramacaoEmbarcada/projeto_final.X/i2c.c"
  5759 ;; Parameters:    Size  Location     Type
  5760 ;;  val             1    wreg     unsigned char 
  5761 ;; Auto vars:     Size  Location     Type
  5762 ;;  val             1    6[COMRAM] unsigned char 
  5763 ;;  i               1    7[COMRAM] unsigned char 
  5764 ;; Return value:  Size  Location     Type
  5765 ;;                  1    wreg      void 
  5766 ;; Registers used:
  5767 ;;		wreg, status,2, status,0, cstack
  5768 ;; Tracked objects:
  5769 ;;		On entry : 0/0
  5770 ;;		On exit  : 0/0
  5771 ;;		Unchanged: 0/0
  5772 ;; Data sizes:     COMRAM   BANK0   BANK1   BANK2   BANK3   BANK4   BANK5
  5773 ;;      Params:         0       0       0       0       0       0       0
  5774 ;;      Locals:         2       0       0       0       0       0       0
  5775 ;;      Temps:          2       0       0       0       0       0       0
  5776 ;;      Totals:         4       0       0       0       0       0       0
  5777 ;;Total ram usage:        4 bytes
  5778 ;; Hardware stack levels used: 1
  5779 ;; Hardware stack levels required when called: 1
  5780 ;; This function calls:
  5781 ;;		_delay
  5782 ;; This function is called by:
  5783 ;;		_rtc_r
  5784 ;; This function uses a non-reentrant model
  5785 ;;
  5786                           
  5787                           	psect	text3
  5788  005342                     __ptext3:
  5789                           	callstack 0
  5790  005342                     _i2c_wb:
  5791                           	callstack 27
  5792                           
  5793                           ;incstack = 0
  5794                           ;i2c_wb@val stored from wreg
  5795  005342  6E50               	movwf	i2c_wb@val^0,c
  5796  005344                     
  5797                           ;C:/Users/bruno/OneDrive/Documentos/ProgramacaoEmbarcada/projeto_final.X/i2c.c: 63:     
      +                          unsigned char i;;C:/Users/bruno/OneDrive/Documentos/ProgramacaoEmbarcada/projeto_final.X
      +                          /i2c.c: 64:     PORTCbits.RC3 = 0;
  5798  005344  9682               	bcf	130,3,c	;volatile
  5799  005346                     
  5800                           ;C:/Users/bruno/OneDrive/Documentos/ProgramacaoEmbarcada/projeto_final.X/i2c.c: 65:     
      +                          for (i = 0; i < 8; i++) {
  5801  005346  0E00               	movlw	0
  5802  005348  6E51               	movwf	i2c_wb@i^0,c
  5803  00534A                     l3384:
  5804                           
  5805                           ;C:/Users/bruno/OneDrive/Documentos/ProgramacaoEmbarcada/projeto_final.X/i2c.c: 66:     
      +                              PORTCbits.RC4 = ((val >> (7 - i))& 0x01);
  5806  00534A  5051               	movf	i2c_wb@i^0,w,c
  5807  00534C  0807               	sublw	7
  5808  00534E  6E4E               	movwf	??_i2c_wb^0,c
  5809  005350  C050  F04F         	movff	i2c_wb@val,??_i2c_wb+1
  5810  005354  2A4E               	incf	??_i2c_wb^0,f,c
  5811  005356  EFAF  F029         	goto	u2934
  5812  00535A                     u2935:
  5813  00535A  90D8               	bcf	status,0,c
  5814  00535C  324F               	rrcf	(??_i2c_wb+1)^0,f,c
  5815  00535E                     u2934:
  5816  00535E  2E4E               	decfsz	??_i2c_wb^0,f,c
  5817  005360  EFAD  F029         	goto	u2935
  5818  005364  0E01               	movlw	1
  5819  005366  164F               	andwf	(??_i2c_wb+1)^0,f,c
  5820  005368  3A4F               	swapf	(??_i2c_wb+1)^0,f,c
  5821  00536A  5082               	movf	130,w,c	;volatile
  5822  00536C  184F               	xorwf	(??_i2c_wb+1)^0,w,c
  5823  00536E  0BEF               	andlw	-17
  5824  005370  184F               	xorwf	(??_i2c_wb+1)^0,w,c
  5825  005372  6E82               	movwf	130,c	;volatile
  5826  005374                     
  5827                           ;C:/Users/bruno/OneDrive/Documentos/ProgramacaoEmbarcada/projeto_final.X/i2c.c: 67:     
      +                              PORTCbits.RC3 = 1;
  5828  005374  8682               	bsf	130,3,c	;volatile
  5829  005376                     
  5830                           ;C:/Users/bruno/OneDrive/Documentos/ProgramacaoEmbarcada/projeto_final.X/i2c.c: 68:     
      +                              delay();
  5831  005376  ECCF  F029         	call	_delay	;wreg free
  5832  00537A                     
  5833                           ;C:/Users/bruno/OneDrive/Documentos/ProgramacaoEmbarcada/projeto_final.X/i2c.c: 69:     
      +                              PORTCbits.RC3 = 0;
  5834  00537A  9682               	bcf	130,3,c	;volatile
  5835  00537C                     
  5836                           ;C:/Users/bruno/OneDrive/Documentos/ProgramacaoEmbarcada/projeto_final.X/i2c.c: 70:     
      +                          }
  5837  00537C  2A51               	incf	i2c_wb@i^0,f,c
  5838  00537E  0E07               	movlw	7
  5839  005380  6451               	cpfsgt	i2c_wb@i^0,c
  5840  005382  EFC5  F029         	goto	u2941
  5841  005386  EFC7  F029         	goto	u2940
  5842  00538A                     u2941:
  5843  00538A  EFA5  F029         	goto	l3384
  5844  00538E                     u2940:
  5845  00538E                     
  5846                           ;C:/Users/bruno/OneDrive/Documentos/ProgramacaoEmbarcada/projeto_final.X/i2c.c: 71:     
      +                          PORTCbits.RC4 = 1;
  5847  00538E  8882               	bsf	130,4,c	;volatile
  5848  005390                     
  5849                           ;C:/Users/bruno/OneDrive/Documentos/ProgramacaoEmbarcada/projeto_final.X/i2c.c: 72:     
      +                          delay();
  5850  005390  ECCF  F029         	call	_delay	;wreg free
  5851  005394                     
  5852                           ;C:/Users/bruno/OneDrive/Documentos/ProgramacaoEmbarcada/projeto_final.X/i2c.c: 73:     
      +                          PORTCbits.RC3 = 1;
  5853  005394  8682               	bsf	130,3,c	;volatile
  5854                           
  5855                           ;C:/Users/bruno/OneDrive/Documentos/ProgramacaoEmbarcada/projeto_final.X/i2c.c: 74:     
      +                          delay();
  5856  005396  ECCF  F029         	call	_delay	;wreg free
  5857  00539A                     
  5858                           ;C:/Users/bruno/OneDrive/Documentos/ProgramacaoEmbarcada/projeto_final.X/i2c.c: 75:     
      +                          PORTCbits.RC3 = 0;
  5859  00539A  9682               	bcf	130,3,c	;volatile
  5860  00539C  0012               	return		;funcret
  5861  00539E                     __end_of_i2c_wb:
  5862                           	callstack 0
  5863                           
  5864 ;; *************** function _i2c_stop *****************
  5865 ;; Defined at:
  5866 ;;		line 54 in file "C:/Users/bruno/OneDrive/Documentos/ProgramacaoEmbarcada/projeto_final.X/i2c.c"
  5867 ;; Parameters:    Size  Location     Type
  5868 ;;		None
  5869 ;; Auto vars:     Size  Location     Type
  5870 ;;		None
  5871 ;; Return value:  Size  Location     Type
  5872 ;;                  1    wreg      void 
  5873 ;; Registers used:
  5874 ;;		wreg, status,2, status,0, cstack
  5875 ;; Tracked objects:
  5876 ;;		On entry : 0/0
  5877 ;;		On exit  : 0/0
  5878 ;;		Unchanged: 0/0
  5879 ;; Data sizes:     COMRAM   BANK0   BANK1   BANK2   BANK3   BANK4   BANK5
  5880 ;;      Params:         0       0       0       0       0       0       0
  5881 ;;      Locals:         0       0       0       0       0       0       0
  5882 ;;      Temps:          0       0       0       0       0       0       0
  5883 ;;      Totals:         0       0       0       0       0       0       0
  5884 ;;Total ram usage:        0 bytes
  5885 ;; Hardware stack levels used: 1
  5886 ;; Hardware stack levels required when called: 1
  5887 ;; This function calls:
  5888 ;;		_delay
  5889 ;; This function is called by:
  5890 ;;		_rtc_r
  5891 ;; This function uses a non-reentrant model
  5892 ;;
  5893                           
  5894                           	psect	text4
  5895  00525C                     __ptext4:
  5896                           	callstack 0
  5897  00525C                     _i2c_stop:
  5898                           	callstack 27
  5899  00525C                     
  5900                           ;C:/Users/bruno/OneDrive/Documentos/ProgramacaoEmbarcada/projeto_final.X/i2c.c: 55:     
      +                          PORTCbits.RC3 = 1;
  5901  00525C  8682               	bsf	130,3,c	;volatile
  5902                           
  5903                           ;C:/Users/bruno/OneDrive/Documentos/ProgramacaoEmbarcada/projeto_final.X/i2c.c: 56:     
      +                          PORTCbits.RC4 = 0;
  5904  00525E  9882               	bcf	130,4,c	;volatile
  5905  005260                     
  5906                           ;C:/Users/bruno/OneDrive/Documentos/ProgramacaoEmbarcada/projeto_final.X/i2c.c: 57:     
      +                          delay();
  5907  005260  ECCF  F029         	call	_delay	;wreg free
  5908  005264                     
  5909                           ;C:/Users/bruno/OneDrive/Documentos/ProgramacaoEmbarcada/projeto_final.X/i2c.c: 58:     
      +                          PORTCbits.RC4 = 1;
  5910  005264  8882               	bsf	130,4,c	;volatile
  5911                           
  5912                           ;C:/Users/bruno/OneDrive/Documentos/ProgramacaoEmbarcada/projeto_final.X/i2c.c: 59:     
      +                          delay();
  5913  005266  ECCF  F029         	call	_delay	;wreg free
  5914  00526A  0012               	return		;funcret
  5915  00526C                     __end_of_i2c_stop:
  5916                           	callstack 0
  5917                           
  5918 ;; *************** function _i2c_start *****************
  5919 ;; Defined at:
  5920 ;;		line 46 in file "C:/Users/bruno/OneDrive/Documentos/ProgramacaoEmbarcada/projeto_final.X/i2c.c"
  5921 ;; Parameters:    Size  Location     Type
  5922 ;;		None
  5923 ;; Auto vars:     Size  Location     Type
  5924 ;;		None
  5925 ;; Return value:  Size  Location     Type
  5926 ;;                  1    wreg      void 
  5927 ;; Registers used:
  5928 ;;		wreg, status,2, status,0, cstack
  5929 ;; Tracked objects:
  5930 ;;		On entry : 0/0
  5931 ;;		On exit  : 0/0
  5932 ;;		Unchanged: 0/0
  5933 ;; Data sizes:     COMRAM   BANK0   BANK1   BANK2   BANK3   BANK4   BANK5
  5934 ;;      Params:         0       0       0       0       0       0       0
  5935 ;;      Locals:         0       0       0       0       0       0       0
  5936 ;;      Temps:          0       0       0       0       0       0       0
  5937 ;;      Totals:         0       0       0       0       0       0       0
  5938 ;;Total ram usage:        0 bytes
  5939 ;; Hardware stack levels used: 1
  5940 ;; Hardware stack levels required when called: 1
  5941 ;; This function calls:
  5942 ;;		_delay
  5943 ;; This function is called by:
  5944 ;;		_rtc_r
  5945 ;; This function uses a non-reentrant model
  5946 ;;
  5947                           
  5948                           	psect	text5
  5949  00524C                     __ptext5:
  5950                           	callstack 0
  5951  00524C                     _i2c_start:
  5952                           	callstack 27
  5953  00524C                     
  5954                           ;C:/Users/bruno/OneDrive/Documentos/ProgramacaoEmbarcada/projeto_final.X/i2c.c: 47:     
      +                          PORTCbits.RC3 = 1;
  5955  00524C  8682               	bsf	130,3,c	;volatile
  5956                           
  5957                           ;C:/Users/bruno/OneDrive/Documentos/ProgramacaoEmbarcada/projeto_final.X/i2c.c: 48:     
      +                          PORTCbits.RC4 = 1;
  5958  00524E  8882               	bsf	130,4,c	;volatile
  5959  005250                     
  5960                           ;C:/Users/bruno/OneDrive/Documentos/ProgramacaoEmbarcada/projeto_final.X/i2c.c: 49:     
      +                          delay();
  5961  005250  ECCF  F029         	call	_delay	;wreg free
  5962  005254                     
  5963                           ;C:/Users/bruno/OneDrive/Documentos/ProgramacaoEmbarcada/projeto_final.X/i2c.c: 50:     
      +                          PORTCbits.RC4 = 0;
  5964  005254  9882               	bcf	130,4,c	;volatile
  5965                           
  5966                           ;C:/Users/bruno/OneDrive/Documentos/ProgramacaoEmbarcada/projeto_final.X/i2c.c: 51:     
      +                          delay();
  5967  005256  ECCF  F029         	call	_delay	;wreg free
  5968  00525A  0012               	return		;funcret
  5969  00525C                     __end_of_i2c_start:
  5970                           	callstack 0
  5971                           
  5972 ;; *************** function _i2c_rb *****************
  5973 ;; Defined at:
  5974 ;;		line 78 in file "C:/Users/bruno/OneDrive/Documentos/ProgramacaoEmbarcada/projeto_final.X/i2c.c"
  5975 ;; Parameters:    Size  Location     Type
  5976 ;;  ack             1    wreg     unsigned char 
  5977 ;; Auto vars:     Size  Location     Type
  5978 ;;  ack             1    6[COMRAM] unsigned char 
  5979 ;;  i               1    8[COMRAM] unsigned char 
  5980 ;;  ret             1    7[COMRAM] unsigned char 
  5981 ;; Return value:  Size  Location     Type
  5982 ;;                  1    wreg      unsigned char 
  5983 ;; Registers used:
  5984 ;;		wreg, status,2, status,0, cstack
  5985 ;; Tracked objects:
  5986 ;;		On entry : 0/0
  5987 ;;		On exit  : 0/0
  5988 ;;		Unchanged: 0/0
  5989 ;; Data sizes:     COMRAM   BANK0   BANK1   BANK2   BANK3   BANK4   BANK5
  5990 ;;      Params:         0       0       0       0       0       0       0
  5991 ;;      Locals:         3       0       0       0       0       0       0
  5992 ;;      Temps:          2       0       0       0       0       0       0
  5993 ;;      Totals:         5       0       0       0       0       0       0
  5994 ;;Total ram usage:        5 bytes
  5995 ;; Hardware stack levels used: 1
  5996 ;; Hardware stack levels required when called: 1
  5997 ;; This function calls:
  5998 ;;		_delay
  5999 ;; This function is called by:
  6000 ;;		_rtc_r
  6001 ;; This function uses a non-reentrant model
  6002 ;;
  6003                           
  6004                           	psect	text6
  6005  0056A8                     __ptext6:
  6006                           	callstack 0
  6007  0056A8                     _i2c_rb:
  6008                           	callstack 27
  6009                           
  6010                           ;incstack = 0
  6011                           ;i2c_rb@ack stored from wreg
  6012  0056A8  6E50               	movwf	i2c_rb@ack^0,c
  6013  0056AA                     
  6014                           ;C:/Users/bruno/OneDrive/Documentos/ProgramacaoEmbarcada/projeto_final.X/i2c.c: 79:     
      +                          char i;;C:/Users/bruno/OneDrive/Documentos/ProgramacaoEmbarcada/projeto_final.X/i2c.c: 8
      +                          0:     unsigned char ret = 0;
  6015  0056AA  0E00               	movlw	0
  6016  0056AC  6E51               	movwf	i2c_rb@ret^0,c
  6017  0056AE                     
  6018                           ;C:/Users/bruno/OneDrive/Documentos/ProgramacaoEmbarcada/projeto_final.X/i2c.c: 82:     
      +                          PORTCbits.RC3 = 0;
  6019  0056AE  9682               	bcf	130,3,c	;volatile
  6020  0056B0                     
  6021                           ;C:/Users/bruno/OneDrive/Documentos/ProgramacaoEmbarcada/projeto_final.X/i2c.c: 83:     
      +                          TRISCbits.TRISC4 = 1;
  6022  0056B0  8894               	bsf	148,4,c	;volatile
  6023  0056B2                     
  6024                           ;C:/Users/bruno/OneDrive/Documentos/ProgramacaoEmbarcada/projeto_final.X/i2c.c: 84:     
      +                          PORTCbits.RC4 = 1;
  6025  0056B2  8882               	bsf	130,4,c	;volatile
  6026                           
  6027                           ;C:/Users/bruno/OneDrive/Documentos/ProgramacaoEmbarcada/projeto_final.X/i2c.c: 85:     
      +                          for (i = 0; i < 8; i++) {
  6028  0056B4  0E00               	movlw	0
  6029  0056B6  6E52               	movwf	i2c_rb@i^0,c
  6030  0056B8                     l152:
  6031                           
  6032                           ;C:/Users/bruno/OneDrive/Documentos/ProgramacaoEmbarcada/projeto_final.X/i2c.c: 86:     
      +                              PORTCbits.RC3 = 1;
  6033  0056B8  8682               	bsf	130,3,c	;volatile
  6034  0056BA                     
  6035                           ;C:/Users/bruno/OneDrive/Documentos/ProgramacaoEmbarcada/projeto_final.X/i2c.c: 87:     
      +                              delay();
  6036  0056BA  ECCF  F029         	call	_delay	;wreg free
  6037  0056BE                     
  6038                           ;C:/Users/bruno/OneDrive/Documentos/ProgramacaoEmbarcada/projeto_final.X/i2c.c: 88:     
      +                              ret |= (PORTCbits.RC4 << (7 - i));
  6039  0056BE  5052               	movf	i2c_rb@i^0,w,c
  6040  0056C0  0807               	sublw	7
  6041  0056C2  6E4E               	movwf	??_i2c_rb^0,c
  6042  0056C4  B882               	btfsc	130,4,c	;volatile
  6043  0056C6  EF67  F02B         	goto	u2951
  6044  0056CA  EF6B  F02B         	goto	u2950
  6045  0056CE                     u2951:
  6046  0056CE  6A4F               	clrf	(??_i2c_rb+1)^0,c
  6047  0056D0  2A4F               	incf	(??_i2c_rb+1)^0,f,c
  6048  0056D2  EF6C  F02B         	goto	u2958
  6049  0056D6                     u2950:
  6050  0056D6  6A4F               	clrf	(??_i2c_rb+1)^0,c
  6051  0056D8                     u2958:
  6052  0056D8  2A4E               	incf	??_i2c_rb^0,f,c
  6053  0056DA  EF71  F02B         	goto	u2964
  6054  0056DE                     u2965:
  6055  0056DE  90D8               	bcf	status,0,c
  6056  0056E0  364F               	rlcf	(??_i2c_rb+1)^0,f,c
  6057  0056E2                     u2964:
  6058  0056E2  2E4E               	decfsz	??_i2c_rb^0,f,c
  6059  0056E4  EF6F  F02B         	goto	u2965
  6060  0056E8  504F               	movf	(??_i2c_rb+1)^0,w,c
  6061  0056EA  1251               	iorwf	i2c_rb@ret^0,f,c
  6062  0056EC                     
  6063                           ;C:/Users/bruno/OneDrive/Documentos/ProgramacaoEmbarcada/projeto_final.X/i2c.c: 89:     
      +                              PORTCbits.RC3 = 0;
  6064  0056EC  9682               	bcf	130,3,c	;volatile
  6065  0056EE                     
  6066                           ;C:/Users/bruno/OneDrive/Documentos/ProgramacaoEmbarcada/projeto_final.X/i2c.c: 90:     
      +                          }
  6067  0056EE  2A52               	incf	i2c_rb@i^0,f,c
  6068  0056F0  0E07               	movlw	7
  6069  0056F2  6452               	cpfsgt	i2c_rb@i^0,c
  6070  0056F4  EF7E  F02B         	goto	u2971
  6071  0056F8  EF80  F02B         	goto	u2970
  6072  0056FC                     u2971:
  6073  0056FC  EF5C  F02B         	goto	l152
  6074  005700                     u2970:
  6075  005700                     
  6076                           ;C:/Users/bruno/OneDrive/Documentos/ProgramacaoEmbarcada/projeto_final.X/i2c.c: 91:     
      +                          TRISCbits.TRISC4 = 0;
  6077  005700  9894               	bcf	148,4,c	;volatile
  6078  005702                     
  6079                           ;C:/Users/bruno/OneDrive/Documentos/ProgramacaoEmbarcada/projeto_final.X/i2c.c: 92:     
      +                          if (ack)
  6080  005702  5050               	movf	i2c_rb@ack^0,w,c
  6081  005704  B4D8               	btfsc	status,2,c
  6082  005706  EF87  F02B         	goto	u2981
  6083  00570A  EF89  F02B         	goto	u2980
  6084  00570E                     u2981:
  6085  00570E  EF8C  F02B         	goto	l154
  6086  005712                     u2980:
  6087  005712                     
  6088                           ;C:/Users/bruno/OneDrive/Documentos/ProgramacaoEmbarcada/projeto_final.X/i2c.c: 93:     
      +                              PORTCbits.RC4 = 0;
  6089  005712  9882               	bcf	130,4,c	;volatile
  6090  005714  EF8D  F02B         	goto	l3428
  6091  005718                     l154:
  6092                           
  6093                           ;C:/Users/bruno/OneDrive/Documentos/ProgramacaoEmbarcada/projeto_final.X/i2c.c: 95:     
      +                              PORTCbits.RC4 = 1;
  6094  005718  8882               	bsf	130,4,c	;volatile
  6095  00571A                     l3428:
  6096                           
  6097                           ;C:/Users/bruno/OneDrive/Documentos/ProgramacaoEmbarcada/projeto_final.X/i2c.c: 96:     
      +                          delay();
  6098  00571A  ECCF  F029         	call	_delay	;wreg free
  6099  00571E                     
  6100                           ;C:/Users/bruno/OneDrive/Documentos/ProgramacaoEmbarcada/projeto_final.X/i2c.c: 97:     
      +                          PORTCbits.RC3 = 1;
  6101  00571E  8682               	bsf	130,3,c	;volatile
  6102                           
  6103                           ;C:/Users/bruno/OneDrive/Documentos/ProgramacaoEmbarcada/projeto_final.X/i2c.c: 98:     
      +                          delay();
  6104  005720  ECCF  F029         	call	_delay	;wreg free
  6105  005724                     
  6106                           ;C:/Users/bruno/OneDrive/Documentos/ProgramacaoEmbarcada/projeto_final.X/i2c.c: 99:     
      +                          PORTCbits.RC3 = 0;
  6107  005724  9682               	bcf	130,3,c	;volatile
  6108  005726                     
  6109                           ;C:/Users/bruno/OneDrive/Documentos/ProgramacaoEmbarcada/projeto_final.X/i2c.c: 101:    
      +                           return ret;
  6110  005726  5051               	movf	i2c_rb@ret^0,w,c
  6111  005728  0012               	return		;funcret
  6112  00572A                     __end_of_i2c_rb:
  6113                           	callstack 0
  6114                           
  6115 ;; *************** function _delay *****************
  6116 ;; Defined at:
  6117 ;;		line 29 in file "C:/Users/bruno/OneDrive/Documentos/ProgramacaoEmbarcada/projeto_final.X/i2c.c"
  6118 ;; Parameters:    Size  Location     Type
  6119 ;;		None
  6120 ;; Auto vars:     Size  Location     Type
  6121 ;;  i               2    0[COMRAM] unsigned int 
  6122 ;;  k               1    3[COMRAM] volatile unsigned char 
  6123 ;;  j               1    2[COMRAM] volatile unsigned char 
  6124 ;; Return value:  Size  Location     Type
  6125 ;;                  1    wreg      void 
  6126 ;; Registers used:
  6127 ;;		wreg, status,2, status,0
  6128 ;; Tracked objects:
  6129 ;;		On entry : 0/0
  6130 ;;		On exit  : 0/0
  6131 ;;		Unchanged: 0/0
  6132 ;; Data sizes:     COMRAM   BANK0   BANK1   BANK2   BANK3   BANK4   BANK5
  6133 ;;      Params:         0       0       0       0       0       0       0
  6134 ;;      Locals:         4       0       0       0       0       0       0
  6135 ;;      Temps:          0       0       0       0       0       0       0
  6136 ;;      Totals:         4       0       0       0       0       0       0
  6137 ;;Total ram usage:        4 bytes
  6138 ;; Hardware stack levels used: 1
  6139 ;; This function calls:
  6140 ;;		Nothing
  6141 ;; This function is called by:
  6142 ;;		_i2c_start
  6143 ;;		_i2c_stop
  6144 ;;		_i2c_wb
  6145 ;;		_i2c_rb
  6146 ;; This function uses a non-reentrant model
  6147 ;;
  6148                           
  6149                           	psect	text7
  6150  00539E                     __ptext7:
  6151                           	callstack 0
  6152  00539E                     _delay:
  6153                           	callstack 27
  6154  00539E                     
  6155                           ;C:/Users/bruno/OneDrive/Documentos/ProgramacaoEmbarcada/projeto_final.X/i2c.c: 30:     
      +                          unsigned int i;;C:/Users/bruno/OneDrive/Documentos/ProgramacaoEmbarcada/projeto_final.X/
      +                          i2c.c: 31:     volatile unsigned char j, k;;C:/Users/bruno/OneDrive/Documentos/Programac
      +                          aoEmbarcada/projeto_final.X/i2c.c: 33:     for (i = 0; i < 5; i++) {
  6156  00539E  0E00               	movlw	0
  6157  0053A0  6E4B               	movwf	(delay@i+1)^0,c
  6158  0053A2  0E00               	movlw	0
  6159  0053A4  6E4A               	movwf	delay@i^0,c
  6160  0053A6                     l3288:
  6161                           
  6162                           ;C:/Users/bruno/OneDrive/Documentos/ProgramacaoEmbarcada/projeto_final.X/i2c.c: 34:     
      +                              for (j = 0; j < 41; j++) {
  6163  0053A6  0E00               	movlw	0
  6164  0053A8  6E4C               	movwf	delay@j^0,c	;volatile
  6165  0053AA                     l3290:
  6166  0053AA  0E28               	movlw	40
  6167  0053AC  644C               	cpfsgt	delay@j^0,c	;volatile
  6168  0053AE  EFDB  F029         	goto	u2691
  6169  0053B2  EFDD  F029         	goto	u2690
  6170  0053B6                     u2691:
  6171  0053B6  EFDF  F029         	goto	l3294
  6172  0053BA                     u2690:
  6173  0053BA  EFF1  F029         	goto	l3308
  6174  0053BE                     l3294:
  6175                           
  6176                           ;C:/Users/bruno/OneDrive/Documentos/ProgramacaoEmbarcada/projeto_final.X/i2c.c: 35:     
      +                                  for (k = 0; k < 3; k++);
  6177  0053BE  0E00               	movlw	0
  6178  0053C0  6E4D               	movwf	delay@k^0,c	;volatile
  6179  0053C2                     l3296:
  6180  0053C2  0E02               	movlw	2
  6181  0053C4  644D               	cpfsgt	delay@k^0,c	;volatile
  6182  0053C6  EFE7  F029         	goto	u2701
  6183  0053CA  EFE9  F029         	goto	u2700
  6184  0053CE                     u2701:
  6185  0053CE  EFEB  F029         	goto	l3300
  6186  0053D2                     u2700:
  6187  0053D2  EFEE  F029         	goto	l3304
  6188  0053D6                     l3300:
  6189  0053D6  2A4D               	incf	delay@k^0,f,c	;volatile
  6190  0053D8  EFE1  F029         	goto	l3296
  6191  0053DC                     l3304:
  6192                           
  6193                           ;C:/Users/bruno/OneDrive/Documentos/ProgramacaoEmbarcada/projeto_final.X/i2c.c: 36:     
      +                              }
  6194  0053DC  2A4C               	incf	delay@j^0,f,c	;volatile
  6195  0053DE  EFD5  F029         	goto	l3290
  6196  0053E2                     l3308:
  6197                           
  6198                           ;C:/Users/bruno/OneDrive/Documentos/ProgramacaoEmbarcada/projeto_final.X/i2c.c: 37:     
      +                          }
  6199  0053E2  4A4A               	infsnz	delay@i^0,f,c
  6200  0053E4  2A4B               	incf	(delay@i+1)^0,f,c
  6201  0053E6  504B               	movf	(delay@i+1)^0,w,c
  6202  0053E8  E109               	bnz	u2710
  6203  0053EA  0E05               	movlw	5
  6204  0053EC  5C4A               	subwf	delay@i^0,w,c
  6205  0053EE  A0D8               	btfss	status,0,c
  6206  0053F0  EFFC  F029         	goto	u2711
  6207  0053F4  EFFE  F029         	goto	u2710
  6208  0053F8                     u2711:
  6209  0053F8  EFD3  F029         	goto	l3288
  6210  0053FC                     u2710:
  6211  0053FC  0012               	return		;funcret
  6212  0053FE                     __end_of_delay:
  6213                           	callstack 0
  6214                           
  6215 ;; *************** function _getu *****************
  6216 ;; Defined at:
  6217 ;;		line 38 in file "C:/Users/bruno/OneDrive/Documentos/ProgramacaoEmbarcada/projeto_final.X/rtc_r.c"
  6218 ;; Parameters:    Size  Location     Type
  6219 ;;  nn              1    wreg     unsigned char 
  6220 ;; Auto vars:     Size  Location     Type
  6221 ;;  nn              1    0[COMRAM] unsigned char 
  6222 ;; Return value:  Size  Location     Type
  6223 ;;                  1    wreg      unsigned char 
  6224 ;; Registers used:
  6225 ;;		wreg, status,2, status,0
  6226 ;; Tracked objects:
  6227 ;;		On entry : 0/0
  6228 ;;		On exit  : 0/0
  6229 ;;		Unchanged: 0/0
  6230 ;; Data sizes:     COMRAM   BANK0   BANK1   BANK2   BANK3   BANK4   BANK5
  6231 ;;      Params:         0       0       0       0       0       0       0
  6232 ;;      Locals:         1       0       0       0       0       0       0
  6233 ;;      Temps:          0       0       0       0       0       0       0
  6234 ;;      Totals:         1       0       0       0       0       0       0
  6235 ;;Total ram usage:        1 bytes
  6236 ;; Hardware stack levels used: 1
  6237 ;; This function calls:
  6238 ;;		Nothing
  6239 ;; This function is called by:
  6240 ;;		_rtc_r
  6241 ;; This function uses a non-reentrant model
  6242 ;;
  6243                           
  6244                           	psect	text8
  6245  005236                     __ptext8:
  6246                           	callstack 0
  6247  005236                     _getu:
  6248                           	callstack 28
  6249                           
  6250                           ;incstack = 0
  6251                           ;getu@nn stored from wreg
  6252  005236  6E4A               	movwf	getu@nn^0,c
  6253  005238                     
  6254                           ;C:/Users/bruno/OneDrive/Documentos/ProgramacaoEmbarcada/projeto_final.X/rtc_r.c: 38: un
      +                          signed char getu(unsigned char nn);C:/Users/bruno/OneDrive/Documentos/ProgramacaoEmbarca
      +                          da/projeto_final.X/rtc_r.c: 39: {;C:/Users/bruno/OneDrive/Documentos/ProgramacaoEmbarcad
      +                          a/projeto_final.X/rtc_r.c: 40:   return (nn & 0x0F)+0x30;
  6255  005238  504A               	movf	getu@nn^0,w,c
  6256  00523A  0B0F               	andlw	15
  6257  00523C  0F30               	addlw	48
  6258  00523E  0012               	return		;funcret
  6259  005240                     __end_of_getu:
  6260                           	callstack 0
  6261                           
  6262 ;; *************** function _getd *****************
  6263 ;; Defined at:
  6264 ;;		line 33 in file "C:/Users/bruno/OneDrive/Documentos/ProgramacaoEmbarcada/projeto_final.X/rtc_r.c"
  6265 ;; Parameters:    Size  Location     Type
  6266 ;;  nn              1    wreg     unsigned char 
  6267 ;; Auto vars:     Size  Location     Type
  6268 ;;  nn              1    0[COMRAM] unsigned char 
  6269 ;; Return value:  Size  Location     Type
  6270 ;;                  1    wreg      unsigned char 
  6271 ;; Registers used:
  6272 ;;		wreg, status,2, status,0
  6273 ;; Tracked objects:
  6274 ;;		On entry : 0/0
  6275 ;;		On exit  : 0/0
  6276 ;;		Unchanged: 0/0
  6277 ;; Data sizes:     COMRAM   BANK0   BANK1   BANK2   BANK3   BANK4   BANK5
  6278 ;;      Params:         0       0       0       0       0       0       0
  6279 ;;      Locals:         1       0       0       0       0       0       0
  6280 ;;      Temps:          0       0       0       0       0       0       0
  6281 ;;      Totals:         1       0       0       0       0       0       0
  6282 ;;Total ram usage:        1 bytes
  6283 ;; Hardware stack levels used: 1
  6284 ;; This function calls:
  6285 ;;		Nothing
  6286 ;; This function is called by:
  6287 ;;		_rtc_r
  6288 ;; This function uses a non-reentrant model
  6289 ;;
  6290                           
  6291                           	psect	text9
  6292  005240                     __ptext9:
  6293                           	callstack 0
  6294  005240                     _getd:
  6295                           	callstack 28
  6296                           
  6297                           ;incstack = 0
  6298                           ;getd@nn stored from wreg
  6299  005240  6E4A               	movwf	getd@nn^0,c
  6300  005242                     
  6301                           ;C:/Users/bruno/OneDrive/Documentos/ProgramacaoEmbarcada/projeto_final.X/rtc_r.c: 33: un
      +                          signed char getd(unsigned char nn);C:/Users/bruno/OneDrive/Documentos/ProgramacaoEmbarca
      +                          da/projeto_final.X/rtc_r.c: 34: {;C:/Users/bruno/OneDrive/Documentos/ProgramacaoEmbarcad
      +                          a/projeto_final.X/rtc_r.c: 35:  return ((nn & 0xF0)>>4)+0x30;
  6302  005242  384A               	swapf	getd@nn^0,w,c
  6303  005244  0B0F               	andlw	15
  6304  005246  0B0F               	andlw	15
  6305  005248  0F30               	addlw	48
  6306  00524A  0012               	return		;funcret
  6307  00524C                     __end_of_getd:
  6308                           	callstack 0
  6309                           
  6310 ;; *************** function _pwmSet1 *****************
  6311 ;; Defined at:
  6312 ;;		line 23 in file "C:/Users/bruno/OneDrive/Documentos/ProgramacaoEmbarcada/projeto_final.X/pwm.c"
  6313 ;; Parameters:    Size  Location     Type
  6314 ;;  porcento        1    wreg     unsigned char 
  6315 ;; Auto vars:     Size  Location     Type
  6316 ;;  porcento        1    9[COMRAM] unsigned char 
  6317 ;;  val             2   10[COMRAM] unsigned int 
  6318 ;; Return value:  Size  Location     Type
  6319 ;;                  1    wreg      void 
  6320 ;; Registers used:
  6321 ;;		wreg, status,2, status,0, prodl, prodh, cstack
  6322 ;; Tracked objects:
  6323 ;;		On entry : 0/0
  6324 ;;		On exit  : 0/0
  6325 ;;		Unchanged: 0/0
  6326 ;; Data sizes:     COMRAM   BANK0   BANK1   BANK2   BANK3   BANK4   BANK5
  6327 ;;      Params:         0       0       0       0       0       0       0
  6328 ;;      Locals:         3       0       0       0       0       0       0
  6329 ;;      Temps:          2       0       0       0       0       0       0
  6330 ;;      Totals:         5       0       0       0       0       0       0
  6331 ;;Total ram usage:        5 bytes
  6332 ;; Hardware stack levels used: 1
  6333 ;; Hardware stack levels required when called: 1
  6334 ;; This function calls:
  6335 ;;		___lwdiv
  6336 ;;		___wmul
  6337 ;; This function is called by:
  6338 ;;		_tocarAlarme
  6339 ;; This function uses a non-reentrant model
  6340 ;;
  6341                           
  6342                           	psect	text10
  6343  005462                     __ptext10:
  6344                           	callstack 0
  6345  005462                     _pwmSet1:
  6346                           	callstack 28
  6347                           
  6348                           ;incstack = 0
  6349                           ;pwmSet1@porcento stored from wreg
  6350  005462  6E53               	movwf	pwmSet1@porcento^0,c
  6351  005464                     
  6352                           ;C:/Users/bruno/OneDrive/Documentos/ProgramacaoEmbarcada/projeto_final.X/pwm.c: 23: void
      +                           pwmSet1(unsigned char porcento);C:/Users/bruno/OneDrive/Documentos/ProgramacaoEmbarcada
      +                          /projeto_final.X/pwm.c: 24: {;C:/Users/bruno/OneDrive/Documentos/ProgramacaoEmbarcada/pr
      +                          ojeto_final.X/pwm.c: 30:  unsigned int val = ((unsigned int)porcento) *((*(volatile __ne
      +                          ar unsigned char*)0xFCB)+1);
  6353  005464  0E01               	movlw	1
  6354  005466  24CB               	addwf	203,w,c	;volatile
  6355  005468  6E4A               	movwf	___wmul@multiplier^0,c
  6356  00546A  6A4B               	clrf	(___wmul@multiplier+1)^0,c
  6357  00546C  0E00               	movlw	0
  6358  00546E  224B               	addwfc	(___wmul@multiplier+1)^0,f,c
  6359  005470  C053  F04C         	movff	pwmSet1@porcento,___wmul@multiplicand
  6360  005474  6A4D               	clrf	(___wmul@multiplicand+1)^0,c
  6361  005476  EC64  F029         	call	___wmul	;wreg free
  6362  00547A  C04A  F054         	movff	?___wmul,pwmSet1@val
  6363  00547E  C04B  F055         	movff	?___wmul+1,pwmSet1@val+1
  6364  005482                     
  6365                           ;C:/Users/bruno/OneDrive/Documentos/ProgramacaoEmbarcada/projeto_final.X/pwm.c: 31:  val
      +                           = val / 25;
  6366  005482  C054  F04A         	movff	pwmSet1@val,___lwdiv@dividend
  6367  005486  C055  F04B         	movff	pwmSet1@val+1,___lwdiv@dividend+1
  6368  00548A  0E00               	movlw	0
  6369  00548C  6E4D               	movwf	(___lwdiv@divisor+1)^0,c
  6370  00548E  0E19               	movlw	25
  6371  005490  6E4C               	movwf	___lwdiv@divisor^0,c
  6372  005492  EC9F  F02A         	call	___lwdiv	;wreg free
  6373  005496  C04A  F054         	movff	?___lwdiv,pwmSet1@val
  6374  00549A  C04B  F055         	movff	?___lwdiv+1,pwmSet1@val+1
  6375  00549E                     
  6376                           ;C:/Users/bruno/OneDrive/Documentos/ProgramacaoEmbarcada/projeto_final.X/pwm.c: 33:  val
      +                           &= 0x03ff;
  6377  00549E  0EFF               	movlw	255
  6378  0054A0  1654               	andwf	pwmSet1@val^0,f,c
  6379  0054A2  0E03               	movlw	3
  6380  0054A4  1655               	andwf	(pwmSet1@val+1)^0,f,c
  6381  0054A6                     
  6382                           ;C:/Users/bruno/OneDrive/Documentos/ProgramacaoEmbarcada/projeto_final.X/pwm.c: 35:  (*(
      +                          volatile __near unsigned char*)0xFBE) = val >> 2;
  6383  0054A6  C054  F051         	movff	pwmSet1@val,??_pwmSet1
  6384  0054AA  C055  F052         	movff	pwmSet1@val+1,??_pwmSet1+1
  6385  0054AE  90D8               	bcf	status,0,c
  6386  0054B0  3252               	rrcf	(??_pwmSet1+1)^0,f,c
  6387  0054B2  3251               	rrcf	??_pwmSet1^0,f,c
  6388  0054B4  90D8               	bcf	status,0,c
  6389  0054B6  3252               	rrcf	(??_pwmSet1+1)^0,f,c
  6390  0054B8  3251               	rrcf	??_pwmSet1^0,f,c
  6391  0054BA  5051               	movf	??_pwmSet1^0,w,c
  6392  0054BC  6EBE               	movwf	190,c	;volatile
  6393  0054BE                     
  6394                           ;C:/Users/bruno/OneDrive/Documentos/ProgramacaoEmbarcada/projeto_final.X/pwm.c: 37:  (*(
      +                          volatile __near unsigned char*)0xFBD) |= (val & 0x0003) << 4;
  6395  0054BE  C054  F051         	movff	pwmSet1@val,??_pwmSet1
  6396  0054C2  0E03               	movlw	3
  6397  0054C4  1651               	andwf	??_pwmSet1^0,f,c
  6398  0054C6  3851               	swapf	??_pwmSet1^0,w,c
  6399  0054C8  0BF0               	andlw	240
  6400  0054CA  12BD               	iorwf	189,f,c	;volatile
  6401  0054CC  0012               	return		;funcret
  6402  0054CE                     __end_of_pwmSet1:
  6403                           	callstack 0
  6404                           
  6405 ;; *************** function ___wmul *****************
  6406 ;; Defined at:
  6407 ;;		line 15 in file "C:\Program Files\Microchip\xc8\v2.32\pic\sources\c99\common\Umul16.c"
  6408 ;; Parameters:    Size  Location     Type
  6409 ;;  multiplier      2    0[COMRAM] unsigned int 
  6410 ;;  multiplicand    2    2[COMRAM] unsigned int 
  6411 ;; Auto vars:     Size  Location     Type
  6412 ;;  product         2    4[COMRAM] unsigned int 
  6413 ;; Return value:  Size  Location     Type
  6414 ;;                  2    0[COMRAM] unsigned int 
  6415 ;; Registers used:
  6416 ;;		wreg, status,2, status,0, prodl, prodh
  6417 ;; Tracked objects:
  6418 ;;		On entry : 0/0
  6419 ;;		On exit  : 0/0
  6420 ;;		Unchanged: 0/0
  6421 ;; Data sizes:     COMRAM   BANK0   BANK1   BANK2   BANK3   BANK4   BANK5
  6422 ;;      Params:         4       0       0       0       0       0       0
  6423 ;;      Locals:         2       0       0       0       0       0       0
  6424 ;;      Temps:          0       0       0       0       0       0       0
  6425 ;;      Totals:         6       0       0       0       0       0       0
  6426 ;;Total ram usage:        6 bytes
  6427 ;; Hardware stack levels used: 1
  6428 ;; This function calls:
  6429 ;;		Nothing
  6430 ;; This function is called by:
  6431 ;;		_pwmSet1
  6432 ;;		_pwmSet2
  6433 ;; This function uses a non-reentrant model
  6434 ;;
  6435                           
  6436                           	psect	text11
  6437  0052C8                     __ptext11:
  6438                           	callstack 0
  6439  0052C8                     ___wmul:
  6440                           	callstack 28
  6441  0052C8  504A               	movf	___wmul@multiplier^0,w,c
  6442  0052CA  024C               	mulwf	___wmul@multiplicand^0,c
  6443  0052CC  CFF3 F04E          	movff	prodl,___wmul@product
  6444  0052D0  CFF4 F04F          	movff	prodh,___wmul@product+1
  6445  0052D4  504A               	movf	___wmul@multiplier^0,w,c
  6446  0052D6  024D               	mulwf	(___wmul@multiplicand+1)^0,c
  6447  0052D8  50F3               	movf	243,w,c
  6448  0052DA  264F               	addwf	(___wmul@product+1)^0,f,c
  6449  0052DC  504B               	movf	(___wmul@multiplier+1)^0,w,c
  6450  0052DE  024C               	mulwf	___wmul@multiplicand^0,c
  6451  0052E0  50F3               	movf	243,w,c
  6452  0052E2  264F               	addwf	(___wmul@product+1)^0,f,c
  6453  0052E4  C04E  F04A         	movff	___wmul@product,?___wmul
  6454  0052E8  C04F  F04B         	movff	___wmul@product+1,?___wmul+1
  6455  0052EC  0012               	return		;funcret
  6456  0052EE                     __end_of___wmul:
  6457                           	callstack 0
  6458                           
  6459 ;; *************** function ___lwdiv *****************
  6460 ;; Defined at:
  6461 ;;		line 7 in file "C:\Program Files\Microchip\xc8\v2.32\pic\sources\c99\common\lwdiv.c"
  6462 ;; Parameters:    Size  Location     Type
  6463 ;;  dividend        2    0[COMRAM] unsigned int 
  6464 ;;  divisor         2    2[COMRAM] unsigned int 
  6465 ;; Auto vars:     Size  Location     Type
  6466 ;;  quotient        2    4[COMRAM] unsigned int 
  6467 ;;  counter         1    6[COMRAM] unsigned char 
  6468 ;; Return value:  Size  Location     Type
  6469 ;;                  2    0[COMRAM] unsigned int 
  6470 ;; Registers used:
  6471 ;;		wreg, status,2, status,0
  6472 ;; Tracked objects:
  6473 ;;		On entry : 0/0
  6474 ;;		On exit  : 0/0
  6475 ;;		Unchanged: 0/0
  6476 ;; Data sizes:     COMRAM   BANK0   BANK1   BANK2   BANK3   BANK4   BANK5
  6477 ;;      Params:         4       0       0       0       0       0       0
  6478 ;;      Locals:         3       0       0       0       0       0       0
  6479 ;;      Temps:          0       0       0       0       0       0       0
  6480 ;;      Totals:         7       0       0       0       0       0       0
  6481 ;;Total ram usage:        7 bytes
  6482 ;; Hardware stack levels used: 1
  6483 ;; This function calls:
  6484 ;;		Nothing
  6485 ;; This function is called by:
  6486 ;;		_pwmSet1
  6487 ;;		_pwmSet2
  6488 ;; This function uses a non-reentrant model
  6489 ;;
  6490                           
  6491                           	psect	text12
  6492  00553E                     __ptext12:
  6493                           	callstack 0
  6494  00553E                     ___lwdiv:
  6495                           	callstack 28
  6496  00553E  0E00               	movlw	0
  6497  005540  6E4F               	movwf	(___lwdiv@quotient+1)^0,c
  6498  005542  0E00               	movlw	0
  6499  005544  6E4E               	movwf	___lwdiv@quotient^0,c
  6500  005546  504C               	movf	___lwdiv@divisor^0,w,c
  6501  005548  104D               	iorwf	(___lwdiv@divisor+1)^0,w,c
  6502  00554A  B4D8               	btfsc	status,2,c
  6503  00554C  EFAA  F02A         	goto	u3011
  6504  005550  EFAC  F02A         	goto	u3010
  6505  005554                     u3011:
  6506  005554  EFD4  F02A         	goto	l1110
  6507  005558                     u3010:
  6508  005558  0E01               	movlw	1
  6509  00555A  6E50               	movwf	___lwdiv@counter^0,c
  6510  00555C  EFB4  F02A         	goto	l3482
  6511  005560                     l3480:
  6512  005560  90D8               	bcf	status,0,c
  6513  005562  364C               	rlcf	___lwdiv@divisor^0,f,c
  6514  005564  364D               	rlcf	(___lwdiv@divisor+1)^0,f,c
  6515  005566  2A50               	incf	___lwdiv@counter^0,f,c
  6516  005568                     l3482:
  6517  005568  AE4D               	btfss	(___lwdiv@divisor+1)^0,7,c
  6518  00556A  EFB9  F02A         	goto	u3021
  6519  00556E  EFBB  F02A         	goto	u3020
  6520  005572                     u3021:
  6521  005572  EFB0  F02A         	goto	l3480
  6522  005576                     u3020:
  6523  005576                     l3484:
  6524  005576  90D8               	bcf	status,0,c
  6525  005578  364E               	rlcf	___lwdiv@quotient^0,f,c
  6526  00557A  364F               	rlcf	(___lwdiv@quotient+1)^0,f,c
  6527  00557C  504C               	movf	___lwdiv@divisor^0,w,c
  6528  00557E  5C4A               	subwf	___lwdiv@dividend^0,w,c
  6529  005580  504D               	movf	(___lwdiv@divisor+1)^0,w,c
  6530  005582  584B               	subwfb	(___lwdiv@dividend+1)^0,w,c
  6531  005584  A0D8               	btfss	status,0,c
  6532  005586  EFC7  F02A         	goto	u3031
  6533  00558A  EFC9  F02A         	goto	u3030
  6534  00558E                     u3031:
  6535  00558E  EFCE  F02A         	goto	l3492
  6536  005592                     u3030:
  6537  005592  504C               	movf	___lwdiv@divisor^0,w,c
  6538  005594  5E4A               	subwf	___lwdiv@dividend^0,f,c
  6539  005596  504D               	movf	(___lwdiv@divisor+1)^0,w,c
  6540  005598  5A4B               	subwfb	(___lwdiv@dividend+1)^0,f,c
  6541  00559A  804E               	bsf	___lwdiv@quotient^0,0,c
  6542  00559C                     l3492:
  6543  00559C  90D8               	bcf	status,0,c
  6544  00559E  324D               	rrcf	(___lwdiv@divisor+1)^0,f,c
  6545  0055A0  324C               	rrcf	___lwdiv@divisor^0,f,c
  6546  0055A2  2E50               	decfsz	___lwdiv@counter^0,f,c
  6547  0055A4  EFBB  F02A         	goto	l3484
  6548  0055A8                     l1110:
  6549  0055A8  C04E  F04A         	movff	___lwdiv@quotient,?___lwdiv
  6550  0055AC  C04F  F04B         	movff	___lwdiv@quotient+1,?___lwdiv+1
  6551  0055B0  0012               	return		;funcret
  6552  0055B2                     __end_of___lwdiv:
  6553                           	callstack 0
  6554                           
  6555 ;; *************** function _pwmInit *****************
  6556 ;; Defined at:
  6557 ;;		line 59 in file "C:/Users/bruno/OneDrive/Documentos/ProgramacaoEmbarcada/projeto_final.X/pwm.c"
  6558 ;; Parameters:    Size  Location     Type
  6559 ;;		None
  6560 ;; Auto vars:     Size  Location     Type
  6561 ;;		None
  6562 ;; Return value:  Size  Location     Type
  6563 ;;                  1    wreg      void 
  6564 ;; Registers used:
  6565 ;;		wreg, status,2, status,0
  6566 ;; Tracked objects:
  6567 ;;		On entry : 0/0
  6568 ;;		On exit  : 0/0
  6569 ;;		Unchanged: 0/0
  6570 ;; Data sizes:     COMRAM   BANK0   BANK1   BANK2   BANK3   BANK4   BANK5
  6571 ;;      Params:         0       0       0       0       0       0       0
  6572 ;;      Locals:         0       0       0       0       0       0       0
  6573 ;;      Temps:          0       0       0       0       0       0       0
  6574 ;;      Totals:         0       0       0       0       0       0       0
  6575 ;;Total ram usage:        0 bytes
  6576 ;; Hardware stack levels used: 1
  6577 ;; This function calls:
  6578 ;;		Nothing
  6579 ;; This function is called by:
  6580 ;;		_main
  6581 ;;		_tocarAlarme
  6582 ;; This function uses a non-reentrant model
  6583 ;;
  6584                           
  6585                           	psect	text13
  6586  00526C                     __ptext13:
  6587                           	callstack 0
  6588  00526C                     _pwmInit:
  6589                           	callstack 29
  6590  00526C                     
  6591                           ;C:/Users/bruno/OneDrive/Documentos/ProgramacaoEmbarcada/projeto_final.X/pwm.c: 61:  (((
      +                          *(volatile __near unsigned char*)0xF94)) &= ~(1<<1));
  6592  00526C  9294               	bcf	148,1,c	;volatile
  6593                           
  6594                           ;C:/Users/bruno/OneDrive/Documentos/ProgramacaoEmbarcada/projeto_final.X/pwm.c: 62:  (((
      +                          *(volatile __near unsigned char*)0xF94)) &= ~(1<<2));
  6595  00526E  9494               	bcf	148,2,c	;volatile
  6596  005270                     
  6597                           ;C:/Users/bruno/OneDrive/Documentos/ProgramacaoEmbarcada/projeto_final.X/pwm.c: 64:  (*(
      +                          volatile __near unsigned char*)0xFCA) |= 0b00000011;
  6598  005270  0E03               	movlw	3
  6599  005272  12CA               	iorwf	202,f,c	;volatile
  6600  005274                     
  6601                           ;C:/Users/bruno/OneDrive/Documentos/ProgramacaoEmbarcada/projeto_final.X/pwm.c: 65:  (((
      +                          *(volatile __near unsigned char*)0xFCA)) |= (1<<2));
  6602  005274  84CA               	bsf	202,2,c	;volatile
  6603                           
  6604                           ;C:/Users/bruno/OneDrive/Documentos/ProgramacaoEmbarcada/projeto_final.X/pwm.c: 68:  (*(
      +                          volatile __near unsigned char*)0xFBD) |= 0b00001100;
  6605  005276  0E0C               	movlw	12
  6606  005278  12BD               	iorwf	189,f,c	;volatile
  6607                           
  6608                           ;C:/Users/bruno/OneDrive/Documentos/ProgramacaoEmbarcada/projeto_final.X/pwm.c: 69:  (*(
      +                          volatile __near unsigned char*)0xFBA) |= 0b00001100;
  6609  00527A  0E0C               	movlw	12
  6610  00527C  12BA               	iorwf	186,f,c	;volatile
  6611  00527E  0012               	return		;funcret
  6612  005280                     __end_of_pwmInit:
  6613                           	callstack 0
  6614                           
  6615 ;; *************** function _lcdInit *****************
  6616 ;; Defined at:
  6617 ;;		line 95 in file "C:/Users/bruno/OneDrive/Documentos/ProgramacaoEmbarcada/projeto_final.X/lcd.c"
  6618 ;; Parameters:    Size  Location     Type
  6619 ;;		None
  6620 ;; Auto vars:     Size  Location     Type
  6621 ;;		None
  6622 ;; Return value:  Size  Location     Type
  6623 ;;                  1    wreg      void 
  6624 ;; Registers used:
  6625 ;;		wreg, status,2, status,0, cstack
  6626 ;; Tracked objects:
  6627 ;;		On entry : 0/0
  6628 ;;		On exit  : 0/0
  6629 ;;		Unchanged: 0/0
  6630 ;; Data sizes:     COMRAM   BANK0   BANK1   BANK2   BANK3   BANK4   BANK5
  6631 ;;      Params:         0       0       0       0       0       0       0
  6632 ;;      Locals:         0       0       0       0       0       0       0
  6633 ;;      Temps:          0       0       0       0       0       0       0
  6634 ;;      Totals:         0       0       0       0       0       0       0
  6635 ;;Total ram usage:        0 bytes
  6636 ;; Hardware stack levels used: 1
  6637 ;; Hardware stack levels required when called: 3
  6638 ;; This function calls:
  6639 ;;		_Delay2ms
  6640 ;;		_lcdCommand
  6641 ;;		_pinMode
  6642 ;; This function is called by:
  6643 ;;		_main
  6644 ;;		_tocarAlarme
  6645 ;; This function uses a non-reentrant model
  6646 ;;
  6647                           
  6648                           	psect	text14
  6649  0055B2                     __ptext14:
  6650                           	callstack 0
  6651  0055B2                     _lcdInit:
  6652                           	callstack 26
  6653  0055B2                     
  6654                           ;C:/Users/bruno/OneDrive/Documentos/ProgramacaoEmbarcada/projeto_final.X/lcd.c: 97:     
      +                          pinMode(PIN_E2, 0);
  6655  0055B2  0E00               	movlw	0
  6656  0055B4  6E4B               	movwf	(pinMode@pin+1)^0,c
  6657  0055B6  0E22               	movlw	34
  6658  0055B8  6E4A               	movwf	pinMode@pin^0,c
  6659  0055BA  0E00               	movlw	0
  6660  0055BC  6E4D               	movwf	(pinMode@type+1)^0,c
  6661  0055BE  0E00               	movlw	0
  6662  0055C0  6E4C               	movwf	pinMode@type^0,c
  6663  0055C2  EC12  F030         	call	_pinMode	;wreg free
  6664                           
  6665                           ;C:/Users/bruno/OneDrive/Documentos/ProgramacaoEmbarcada/projeto_final.X/lcd.c: 98:     
      +                          pinMode(PIN_E1, 0);
  6666  0055C6  0E00               	movlw	0
  6667  0055C8  6E4B               	movwf	(pinMode@pin+1)^0,c
  6668  0055CA  0E21               	movlw	33
  6669  0055CC  6E4A               	movwf	pinMode@pin^0,c
  6670  0055CE  0E00               	movlw	0
  6671  0055D0  6E4D               	movwf	(pinMode@type+1)^0,c
  6672  0055D2  0E00               	movlw	0
  6673  0055D4  6E4C               	movwf	pinMode@type^0,c
  6674  0055D6  EC12  F030         	call	_pinMode	;wreg free
  6675  0055DA                     
  6676                           ;C:/Users/bruno/OneDrive/Documentos/ProgramacaoEmbarcada/projeto_final.X/lcd.c: 99:  TRI
      +                          SD = 0x00;
  6677  0055DA  0E00               	movlw	0
  6678  0055DC  6E95               	movwf	149,c	;volatile
  6679  0055DE                     
  6680                           ;C:/Users/bruno/OneDrive/Documentos/ProgramacaoEmbarcada/projeto_final.X/lcd.c: 102:  De
      +                          lay2ms(); Delay2ms(); Delay2ms(); Delay2ms(); Delay2ms();
  6681  0055DE  EC56  F029         	call	_Delay2ms	;wreg free
  6682  0055E2  EC56  F029         	call	_Delay2ms	;wreg free
  6683  0055E6  EC56  F029         	call	_Delay2ms	;wreg free
  6684  0055EA  EC56  F029         	call	_Delay2ms	;wreg free
  6685  0055EE  EC56  F029         	call	_Delay2ms	;wreg free
  6686  0055F2                     
  6687                           ;C:/Users/bruno/OneDrive/Documentos/ProgramacaoEmbarcada/projeto_final.X/lcd.c: 104:    
      +                           lcdCommand(0x38);
  6688  0055F2  0E38               	movlw	56
  6689  0055F4  EC15  F02B         	call	_lcdCommand
  6690  0055F8                     
  6691                           ;C:/Users/bruno/OneDrive/Documentos/ProgramacaoEmbarcada/projeto_final.X/lcd.c: 105:    
      +                           Delay2ms(); Delay2ms();
  6692  0055F8  EC56  F029         	call	_Delay2ms	;wreg free
  6693  0055FC  EC56  F029         	call	_Delay2ms	;wreg free
  6694  005600                     
  6695                           ;C:/Users/bruno/OneDrive/Documentos/ProgramacaoEmbarcada/projeto_final.X/lcd.c: 106:    
      +                           lcdCommand(0x38);
  6696  005600  0E38               	movlw	56
  6697  005602  EC15  F02B         	call	_lcdCommand
  6698  005606                     
  6699                           ;C:/Users/bruno/OneDrive/Documentos/ProgramacaoEmbarcada/projeto_final.X/lcd.c: 107:    
      +                           Delay2ms();
  6700  005606  EC56  F029         	call	_Delay2ms	;wreg free
  6701  00560A                     
  6702                           ;C:/Users/bruno/OneDrive/Documentos/ProgramacaoEmbarcada/projeto_final.X/lcd.c: 108:    
      +                           lcdCommand(0x38);
  6703  00560A  0E38               	movlw	56
  6704  00560C  EC15  F02B         	call	_lcdCommand
  6705  005610                     
  6706                           ;C:/Users/bruno/OneDrive/Documentos/ProgramacaoEmbarcada/projeto_final.X/lcd.c: 110:    
      +                           lcdCommand(0x38);
  6707  005610  0E38               	movlw	56
  6708  005612  EC15  F02B         	call	_lcdCommand
  6709  005616                     
  6710                           ;C:/Users/bruno/OneDrive/Documentos/ProgramacaoEmbarcada/projeto_final.X/lcd.c: 111:    
      +                           lcdCommand(0x06);
  6711  005616  0E06               	movlw	6
  6712  005618  EC15  F02B         	call	_lcdCommand
  6713  00561C                     
  6714                           ;C:/Users/bruno/OneDrive/Documentos/ProgramacaoEmbarcada/projeto_final.X/lcd.c: 114:    
      +                           lcdCommand(0x0C);
  6715  00561C  0E0C               	movlw	12
  6716  00561E  EC15  F02B         	call	_lcdCommand
  6717  005622                     
  6718                           ;C:/Users/bruno/OneDrive/Documentos/ProgramacaoEmbarcada/projeto_final.X/lcd.c: 115:    
      +                           lcdCommand(0x01);
  6719  005622  0E01               	movlw	1
  6720  005624  EC15  F02B         	call	_lcdCommand
  6721  005628  0012               	return		;funcret
  6722  00562A                     __end_of_lcdInit:
  6723                           	callstack 0
  6724                           
  6725 ;; *************** function _pinMode *****************
  6726 ;; Defined at:
  6727 ;;		line 54 in file "C:/Users/bruno/OneDrive/Documentos/ProgramacaoEmbarcada/projeto_final.X/io.c"
  6728 ;; Parameters:    Size  Location     Type
  6729 ;;  pin             2    0[COMRAM] int 
  6730 ;;  type            2    2[COMRAM] int 
  6731 ;; Auto vars:     Size  Location     Type
  6732 ;;		None
  6733 ;; Return value:  Size  Location     Type
  6734 ;;                  1    wreg      void 
  6735 ;; Registers used:
  6736 ;;		wreg, status,2, status,0
  6737 ;; Tracked objects:
  6738 ;;		On entry : 0/0
  6739 ;;		On exit  : 0/0
  6740 ;;		Unchanged: 0/0
  6741 ;; Data sizes:     COMRAM   BANK0   BANK1   BANK2   BANK3   BANK4   BANK5
  6742 ;;      Params:         4       0       0       0       0       0       0
  6743 ;;      Locals:         0       0       0       0       0       0       0
  6744 ;;      Temps:          2       0       0       0       0       0       0
  6745 ;;      Totals:         6       0       0       0       0       0       0
  6746 ;;Total ram usage:        6 bytes
  6747 ;; Hardware stack levels used: 1
  6748 ;; This function calls:
  6749 ;;		Nothing
  6750 ;; This function is called by:
  6751 ;;		_lcdInit
  6752 ;; This function uses a non-reentrant model
  6753 ;;
  6754                           
  6755                           	psect	text15
  6756  006024                     __ptext15:
  6757                           	callstack 0
  6758  006024                     _pinMode:
  6759                           	callstack 28
  6760  006024                     
  6761                           ;C:/Users/bruno/OneDrive/Documentos/ProgramacaoEmbarcada/projeto_final.X/io.c: 56:     i
      +                          f(pin <8){
  6762  006024  BE4B               	btfsc	(pinMode@pin+1)^0,7,c
  6763  006026  EF20  F030         	goto	u2730
  6764  00602A  504B               	movf	(pinMode@pin+1)^0,w,c
  6765  00602C  E107               	bnz	u2731
  6766  00602E  0E08               	movlw	8
  6767  006030  5C4A               	subwf	pinMode@pin^0,w,c
  6768  006032  B0D8               	btfsc	status,0,c
  6769  006034  EF1E  F030         	goto	u2731
  6770  006038  EF20  F030         	goto	u2730
  6771  00603C                     u2731:
  6772  00603C  EF4A  F030         	goto	l3332
  6773  006040                     u2730:
  6774  006040                     
  6775                           ;C:/Users/bruno/OneDrive/Documentos/ProgramacaoEmbarcada/projeto_final.X/io.c: 57:      
      +                             if (type){ ((TRISA) |= (1<<(pin)));}
  6776  006040  504C               	movf	pinMode@type^0,w,c
  6777  006042  104D               	iorwf	(pinMode@type+1)^0,w,c
  6778  006044  B4D8               	btfsc	status,2,c
  6779  006046  EF27  F030         	goto	u2741
  6780  00604A  EF29  F030         	goto	u2740
  6781  00604E                     u2741:
  6782  00604E  EF39  F030         	goto	l3330
  6783  006052                     u2740:
  6784  006052  C04A  F04E         	movff	pinMode@pin,??_pinMode
  6785  006056  0E01               	movlw	1
  6786  006058  6E4F               	movwf	(??_pinMode+1)^0,c
  6787  00605A  2A4E               	incf	??_pinMode^0,f,c
  6788  00605C  EF32  F030         	goto	u2754
  6789  006060                     u2755:
  6790  006060  90D8               	bcf	status,0,c
  6791  006062  364F               	rlcf	(??_pinMode+1)^0,f,c
  6792  006064                     u2754:
  6793  006064  2E4E               	decfsz	??_pinMode^0,f,c
  6794  006066  EF30  F030         	goto	u2755
  6795  00606A  504F               	movf	(??_pinMode+1)^0,w,c
  6796  00606C  1292               	iorwf	146,f,c	;volatile
  6797  00606E  EF38  F031         	goto	l76
  6798  006072                     l3330:
  6799  006072  C04A  F04E         	movff	pinMode@pin,??_pinMode
  6800  006076  0E01               	movlw	1
  6801  006078  6E4F               	movwf	(??_pinMode+1)^0,c
  6802  00607A  2A4E               	incf	??_pinMode^0,f,c
  6803  00607C  EF42  F030         	goto	u2764
  6804  006080                     u2765:
  6805  006080  90D8               	bcf	status,0,c
  6806  006082  364F               	rlcf	(??_pinMode+1)^0,f,c
  6807  006084                     u2764:
  6808  006084  2E4E               	decfsz	??_pinMode^0,f,c
  6809  006086  EF40  F030         	goto	u2765
  6810  00608A  504F               	movf	(??_pinMode+1)^0,w,c
  6811  00608C  0AFF               	xorlw	255
  6812  00608E  1692               	andwf	146,f,c	;volatile
  6813  006090  EF38  F031         	goto	l76
  6814  006094                     l3332:
  6815  006094  BE4B               	btfsc	(pinMode@pin+1)^0,7,c
  6816  006096  EF58  F030         	goto	u2770
  6817  00609A  504B               	movf	(pinMode@pin+1)^0,w,c
  6818  00609C  E107               	bnz	u2771
  6819  00609E  0E10               	movlw	16
  6820  0060A0  5C4A               	subwf	pinMode@pin^0,w,c
  6821  0060A2  B0D8               	btfsc	status,0,c
  6822  0060A4  EF56  F030         	goto	u2771
  6823  0060A8  EF58  F030         	goto	u2770
  6824  0060AC                     u2771:
  6825  0060AC  EF86  F030         	goto	l3340
  6826  0060B0                     u2770:
  6827  0060B0                     
  6828                           ;C:/Users/bruno/OneDrive/Documentos/ProgramacaoEmbarcada/projeto_final.X/io.c: 60:      
      +                             if (type){ ((TRISB) |= (1<<(pin-8)));}
  6829  0060B0  504C               	movf	pinMode@type^0,w,c
  6830  0060B2  104D               	iorwf	(pinMode@type+1)^0,w,c
  6831  0060B4  B4D8               	btfsc	status,2,c
  6832  0060B6  EF5F  F030         	goto	u2781
  6833  0060BA  EF61  F030         	goto	u2780
  6834  0060BE                     u2781:
  6835  0060BE  EF73  F030         	goto	l3338
  6836  0060C2                     u2780:
  6837  0060C2  C04A  F04E         	movff	pinMode@pin,??_pinMode
  6838  0060C6  0EF8               	movlw	-8
  6839  0060C8  264E               	addwf	??_pinMode^0,f,c
  6840  0060CA  0E01               	movlw	1
  6841  0060CC  6E4F               	movwf	(??_pinMode+1)^0,c
  6842  0060CE  2A4E               	incf	??_pinMode^0,f,c
  6843  0060D0  EF6C  F030         	goto	u2794
  6844  0060D4                     u2795:
  6845  0060D4  90D8               	bcf	status,0,c
  6846  0060D6  364F               	rlcf	(??_pinMode+1)^0,f,c
  6847  0060D8                     u2794:
  6848  0060D8  2E4E               	decfsz	??_pinMode^0,f,c
  6849  0060DA  EF6A  F030         	goto	u2795
  6850  0060DE  504F               	movf	(??_pinMode+1)^0,w,c
  6851  0060E0  1293               	iorwf	147,f,c	;volatile
  6852  0060E2  EF38  F031         	goto	l76
  6853  0060E6                     l3338:
  6854  0060E6  C04A  F04E         	movff	pinMode@pin,??_pinMode
  6855  0060EA  0EF8               	movlw	-8
  6856  0060EC  264E               	addwf	??_pinMode^0,f,c
  6857  0060EE  0E01               	movlw	1
  6858  0060F0  6E4F               	movwf	(??_pinMode+1)^0,c
  6859  0060F2  2A4E               	incf	??_pinMode^0,f,c
  6860  0060F4  EF7E  F030         	goto	u2804
  6861  0060F8                     u2805:
  6862  0060F8  90D8               	bcf	status,0,c
  6863  0060FA  364F               	rlcf	(??_pinMode+1)^0,f,c
  6864  0060FC                     u2804:
  6865  0060FC  2E4E               	decfsz	??_pinMode^0,f,c
  6866  0060FE  EF7C  F030         	goto	u2805
  6867  006102  504F               	movf	(??_pinMode+1)^0,w,c
  6868  006104  0AFF               	xorlw	255
  6869  006106  1693               	andwf	147,f,c	;volatile
  6870  006108  EF38  F031         	goto	l76
  6871  00610C                     l3340:
  6872  00610C  BE4B               	btfsc	(pinMode@pin+1)^0,7,c
  6873  00610E  EF94  F030         	goto	u2810
  6874  006112  504B               	movf	(pinMode@pin+1)^0,w,c
  6875  006114  E107               	bnz	u2811
  6876  006116  0E18               	movlw	24
  6877  006118  5C4A               	subwf	pinMode@pin^0,w,c
  6878  00611A  B0D8               	btfsc	status,0,c
  6879  00611C  EF92  F030         	goto	u2811
  6880  006120  EF94  F030         	goto	u2810
  6881  006124                     u2811:
  6882  006124  EFC2  F030         	goto	l3348
  6883  006128                     u2810:
  6884  006128                     
  6885                           ;C:/Users/bruno/OneDrive/Documentos/ProgramacaoEmbarcada/projeto_final.X/io.c: 63:      
      +                             if (type){ ((TRISC) |= (1<<(pin-16)));}
  6886  006128  504C               	movf	pinMode@type^0,w,c
  6887  00612A  104D               	iorwf	(pinMode@type+1)^0,w,c
  6888  00612C  B4D8               	btfsc	status,2,c
  6889  00612E  EF9B  F030         	goto	u2821
  6890  006132  EF9D  F030         	goto	u2820
  6891  006136                     u2821:
  6892  006136  EFAF  F030         	goto	l3346
  6893  00613A                     u2820:
  6894  00613A  C04A  F04E         	movff	pinMode@pin,??_pinMode
  6895  00613E  0EF0               	movlw	-16
  6896  006140  264E               	addwf	??_pinMode^0,f,c
  6897  006142  0E01               	movlw	1
  6898  006144  6E4F               	movwf	(??_pinMode+1)^0,c
  6899  006146  2A4E               	incf	??_pinMode^0,f,c
  6900  006148  EFA8  F030         	goto	u2834
  6901  00614C                     u2835:
  6902  00614C  90D8               	bcf	status,0,c
  6903  00614E  364F               	rlcf	(??_pinMode+1)^0,f,c
  6904  006150                     u2834:
  6905  006150  2E4E               	decfsz	??_pinMode^0,f,c
  6906  006152  EFA6  F030         	goto	u2835
  6907  006156  504F               	movf	(??_pinMode+1)^0,w,c
  6908  006158  1294               	iorwf	148,f,c	;volatile
  6909  00615A  EF38  F031         	goto	l76
  6910  00615E                     l3346:
  6911  00615E  C04A  F04E         	movff	pinMode@pin,??_pinMode
  6912  006162  0EF0               	movlw	-16
  6913  006164  264E               	addwf	??_pinMode^0,f,c
  6914  006166  0E01               	movlw	1
  6915  006168  6E4F               	movwf	(??_pinMode+1)^0,c
  6916  00616A  2A4E               	incf	??_pinMode^0,f,c
  6917  00616C  EFBA  F030         	goto	u2844
  6918  006170                     u2845:
  6919  006170  90D8               	bcf	status,0,c
  6920  006172  364F               	rlcf	(??_pinMode+1)^0,f,c
  6921  006174                     u2844:
  6922  006174  2E4E               	decfsz	??_pinMode^0,f,c
  6923  006176  EFB8  F030         	goto	u2845
  6924  00617A  504F               	movf	(??_pinMode+1)^0,w,c
  6925  00617C  0AFF               	xorlw	255
  6926  00617E  1694               	andwf	148,f,c	;volatile
  6927  006180  EF38  F031         	goto	l76
  6928  006184                     l3348:
  6929  006184  BE4B               	btfsc	(pinMode@pin+1)^0,7,c
  6930  006186  EFD0  F030         	goto	u2850
  6931  00618A  504B               	movf	(pinMode@pin+1)^0,w,c
  6932  00618C  E107               	bnz	u2851
  6933  00618E  0E20               	movlw	32
  6934  006190  5C4A               	subwf	pinMode@pin^0,w,c
  6935  006192  B0D8               	btfsc	status,0,c
  6936  006194  EFCE  F030         	goto	u2851
  6937  006198  EFD0  F030         	goto	u2850
  6938  00619C                     u2851:
  6939  00619C  EFFE  F030         	goto	l3356
  6940  0061A0                     u2850:
  6941  0061A0                     
  6942                           ;C:/Users/bruno/OneDrive/Documentos/ProgramacaoEmbarcada/projeto_final.X/io.c: 66:      
      +                             if (type){ ((TRISD) |= (1<<(pin-24)));}
  6943  0061A0  504C               	movf	pinMode@type^0,w,c
  6944  0061A2  104D               	iorwf	(pinMode@type+1)^0,w,c
  6945  0061A4  B4D8               	btfsc	status,2,c
  6946  0061A6  EFD7  F030         	goto	u2861
  6947  0061AA  EFD9  F030         	goto	u2860
  6948  0061AE                     u2861:
  6949  0061AE  EFEB  F030         	goto	l3354
  6950  0061B2                     u2860:
  6951  0061B2  C04A  F04E         	movff	pinMode@pin,??_pinMode
  6952  0061B6  0EE8               	movlw	-24
  6953  0061B8  264E               	addwf	??_pinMode^0,f,c
  6954  0061BA  0E01               	movlw	1
  6955  0061BC  6E4F               	movwf	(??_pinMode+1)^0,c
  6956  0061BE  2A4E               	incf	??_pinMode^0,f,c
  6957  0061C0  EFE4  F030         	goto	u2874
  6958  0061C4                     u2875:
  6959  0061C4  90D8               	bcf	status,0,c
  6960  0061C6  364F               	rlcf	(??_pinMode+1)^0,f,c
  6961  0061C8                     u2874:
  6962  0061C8  2E4E               	decfsz	??_pinMode^0,f,c
  6963  0061CA  EFE2  F030         	goto	u2875
  6964  0061CE  504F               	movf	(??_pinMode+1)^0,w,c
  6965  0061D0  1295               	iorwf	149,f,c	;volatile
  6966  0061D2  EF38  F031         	goto	l76
  6967  0061D6                     l3354:
  6968  0061D6  C04A  F04E         	movff	pinMode@pin,??_pinMode
  6969  0061DA  0EE8               	movlw	-24
  6970  0061DC  264E               	addwf	??_pinMode^0,f,c
  6971  0061DE  0E01               	movlw	1
  6972  0061E0  6E4F               	movwf	(??_pinMode+1)^0,c
  6973  0061E2  2A4E               	incf	??_pinMode^0,f,c
  6974  0061E4  EFF6  F030         	goto	u2884
  6975  0061E8                     u2885:
  6976  0061E8  90D8               	bcf	status,0,c
  6977  0061EA  364F               	rlcf	(??_pinMode+1)^0,f,c
  6978  0061EC                     u2884:
  6979  0061EC  2E4E               	decfsz	??_pinMode^0,f,c
  6980  0061EE  EFF4  F030         	goto	u2885
  6981  0061F2  504F               	movf	(??_pinMode+1)^0,w,c
  6982  0061F4  0AFF               	xorlw	255
  6983  0061F6  1695               	andwf	149,f,c	;volatile
  6984  0061F8  EF38  F031         	goto	l76
  6985  0061FC                     l3356:
  6986  0061FC  BE4B               	btfsc	(pinMode@pin+1)^0,7,c
  6987  0061FE  EF0C  F031         	goto	u2890
  6988  006202  504B               	movf	(pinMode@pin+1)^0,w,c
  6989  006204  E107               	bnz	u2891
  6990  006206  0E28               	movlw	40
  6991  006208  5C4A               	subwf	pinMode@pin^0,w,c
  6992  00620A  B0D8               	btfsc	status,0,c
  6993  00620C  EF0A  F031         	goto	u2891
  6994  006210  EF0C  F031         	goto	u2890
  6995  006214                     u2891:
  6996  006214  EF38  F031         	goto	l76
  6997  006218                     u2890:
  6998  006218                     
  6999                           ;C:/Users/bruno/OneDrive/Documentos/ProgramacaoEmbarcada/projeto_final.X/io.c: 69:      
      +                             if (type){ ((TRISE) |= (1<<(pin-32)));}
  7000  006218  504C               	movf	pinMode@type^0,w,c
  7001  00621A  104D               	iorwf	(pinMode@type+1)^0,w,c
  7002  00621C  B4D8               	btfsc	status,2,c
  7003  00621E  EF13  F031         	goto	u2901
  7004  006222  EF15  F031         	goto	u2900
  7005  006226                     u2901:
  7006  006226  EF27  F031         	goto	l3362
  7007  00622A                     u2900:
  7008  00622A  C04A  F04E         	movff	pinMode@pin,??_pinMode
  7009  00622E  0EE0               	movlw	-32
  7010  006230  264E               	addwf	??_pinMode^0,f,c
  7011  006232  0E01               	movlw	1
  7012  006234  6E4F               	movwf	(??_pinMode+1)^0,c
  7013  006236  2A4E               	incf	??_pinMode^0,f,c
  7014  006238  EF20  F031         	goto	u2914
  7015  00623C                     u2915:
  7016  00623C  90D8               	bcf	status,0,c
  7017  00623E  364F               	rlcf	(??_pinMode+1)^0,f,c
  7018  006240                     u2914:
  7019  006240  2E4E               	decfsz	??_pinMode^0,f,c
  7020  006242  EF1E  F031         	goto	u2915
  7021  006246  504F               	movf	(??_pinMode+1)^0,w,c
  7022  006248  1296               	iorwf	150,f,c	;volatile
  7023  00624A  EF38  F031         	goto	l76
  7024  00624E                     l3362:
  7025  00624E  C04A  F04E         	movff	pinMode@pin,??_pinMode
  7026  006252  0EE0               	movlw	-32
  7027  006254  264E               	addwf	??_pinMode^0,f,c
  7028  006256  0E01               	movlw	1
  7029  006258  6E4F               	movwf	(??_pinMode+1)^0,c
  7030  00625A  2A4E               	incf	??_pinMode^0,f,c
  7031  00625C  EF32  F031         	goto	u2924
  7032  006260                     u2925:
  7033  006260  90D8               	bcf	status,0,c
  7034  006262  364F               	rlcf	(??_pinMode+1)^0,f,c
  7035  006264                     u2924:
  7036  006264  2E4E               	decfsz	??_pinMode^0,f,c
  7037  006266  EF30  F031         	goto	u2925
  7038  00626A  504F               	movf	(??_pinMode+1)^0,w,c
  7039  00626C  0AFF               	xorlw	255
  7040  00626E  1696               	andwf	150,f,c	;volatile
  7041  006270                     l76:
  7042  006270  0012               	return		;funcret
  7043  006272                     __end_of_pinMode:
  7044                           	callstack 0
  7045                           
  7046 ;; *************** function _lcdCommand *****************
  7047 ;; Defined at:
  7048 ;;		line 48 in file "C:/Users/bruno/OneDrive/Documentos/ProgramacaoEmbarcada/projeto_final.X/lcd.c"
  7049 ;; Parameters:    Size  Location     Type
  7050 ;;  cmd             1    wreg     unsigned char 
  7051 ;; Auto vars:     Size  Location     Type
  7052 ;;  cmd             1    7[COMRAM] unsigned char 
  7053 ;;  old_D           1    6[COMRAM] unsigned char 
  7054 ;; Return value:  Size  Location     Type
  7055 ;;                  1    wreg      void 
  7056 ;; Registers used:
  7057 ;;		wreg, status,2, status,0, cstack
  7058 ;; Tracked objects:
  7059 ;;		On entry : 0/0
  7060 ;;		On exit  : 0/0
  7061 ;;		Unchanged: 0/0
  7062 ;; Data sizes:     COMRAM   BANK0   BANK1   BANK2   BANK3   BANK4   BANK5
  7063 ;;      Params:         0       0       0       0       0       0       0
  7064 ;;      Locals:         2       0       0       0       0       0       0
  7065 ;;      Temps:          0       0       0       0       0       0       0
  7066 ;;      Totals:         2       0       0       0       0       0       0
  7067 ;;Total ram usage:        2 bytes
  7068 ;; Hardware stack levels used: 1
  7069 ;; Hardware stack levels required when called: 2
  7070 ;; This function calls:
  7071 ;;		_Delay2ms
  7072 ;;		_Delay40us
  7073 ;;		_digitalWrite
  7074 ;; This function is called by:
  7075 ;;		_lcdInit
  7076 ;;		_main
  7077 ;;		_tocarAlarme
  7078 ;; This function uses a non-reentrant model
  7079 ;;
  7080                           
  7081                           	psect	text16
  7082  00562A                     __ptext16:
  7083                           	callstack 0
  7084  00562A                     _lcdCommand:
  7085                           	callstack 26
  7086                           
  7087                           ;incstack = 0
  7088                           ;lcdCommand@cmd stored from wreg
  7089  00562A  6E51               	movwf	lcdCommand@cmd^0,c
  7090  00562C                     
  7091                           ;C:/Users/bruno/OneDrive/Documentos/ProgramacaoEmbarcada/projeto_final.X/lcd.c: 48: void
      +                           lcdCommand(unsigned char cmd);C:/Users/bruno/OneDrive/Documentos/ProgramacaoEmbarcada/p
      +                          rojeto_final.X/lcd.c: 49: {;C:/Users/bruno/OneDrive/Documentos/ProgramacaoEmbarcada/proj
      +                          eto_final.X/lcd.c: 50:     unsigned char old_D;;C:/Users/bruno/OneDrive/Documentos/Progr
      +                          amacaoEmbarcada/projeto_final.X/lcd.c: 51:     old_D = PORTD;
  7092  00562C  CF83 F050          	movff	3971,lcdCommand@old_D	;volatile
  7093  005630                     
  7094                           ;C:/Users/bruno/OneDrive/Documentos/ProgramacaoEmbarcada/projeto_final.X/lcd.c: 54:     
      +                          TRISD = 0x00;
  7095  005630  0E00               	movlw	0
  7096  005632  6E95               	movwf	149,c	;volatile
  7097  005634                     
  7098                           ;C:/Users/bruno/OneDrive/Documentos/ProgramacaoEmbarcada/projeto_final.X/lcd.c: 56:  dig
      +                          italWrite(PIN_E2, 0);
  7099  005634  0E00               	movlw	0
  7100  005636  6E4B               	movwf	(digitalWrite@pin+1)^0,c
  7101  005638  0E22               	movlw	34
  7102  00563A  6E4A               	movwf	digitalWrite@pin^0,c
  7103  00563C  0E00               	movlw	0
  7104  00563E  6E4D               	movwf	(digitalWrite@value+1)^0,c
  7105  005640  0E00               	movlw	0
  7106  005642  6E4C               	movwf	digitalWrite@value^0,c
  7107  005644  ECEB  F02E         	call	_digitalWrite	;wreg free
  7108  005648                     
  7109                           ;C:/Users/bruno/OneDrive/Documentos/ProgramacaoEmbarcada/projeto_final.X/lcd.c: 57:  POR
      +                          TD = cmd;
  7110  005648  C051  FF83         	movff	lcdCommand@cmd,3971	;volatile
  7111  00564C                     
  7112                           ;C:/Users/bruno/OneDrive/Documentos/ProgramacaoEmbarcada/projeto_final.X/lcd.c: 59:     
      +                          digitalWrite(PIN_E1, 1);
  7113  00564C  0E00               	movlw	0
  7114  00564E  6E4B               	movwf	(digitalWrite@pin+1)^0,c
  7115  005650  0E21               	movlw	33
  7116  005652  6E4A               	movwf	digitalWrite@pin^0,c
  7117  005654  0E00               	movlw	0
  7118  005656  6E4D               	movwf	(digitalWrite@value+1)^0,c
  7119  005658  0E01               	movlw	1
  7120  00565A  6E4C               	movwf	digitalWrite@value^0,c
  7121  00565C  ECEB  F02E         	call	_digitalWrite	;wreg free
  7122  005660                     
  7123                           ;C:/Users/bruno/OneDrive/Documentos/ProgramacaoEmbarcada/projeto_final.X/lcd.c: 60:  dig
      +                          italWrite(PIN_E1, 0);
  7124  005660  0E00               	movlw	0
  7125  005662  6E4B               	movwf	(digitalWrite@pin+1)^0,c
  7126  005664  0E21               	movlw	33
  7127  005666  6E4A               	movwf	digitalWrite@pin^0,c
  7128  005668  0E00               	movlw	0
  7129  00566A  6E4D               	movwf	(digitalWrite@value+1)^0,c
  7130  00566C  0E00               	movlw	0
  7131  00566E  6E4C               	movwf	digitalWrite@value^0,c
  7132  005670  ECEB  F02E         	call	_digitalWrite	;wreg free
  7133  005674                     
  7134                           ;C:/Users/bruno/OneDrive/Documentos/ProgramacaoEmbarcada/projeto_final.X/lcd.c: 63:     
      +                          PORTD= old_D;
  7135  005674  C050  FF83         	movff	lcdCommand@old_D,3971	;volatile
  7136  005678                     
  7137                           ;C:/Users/bruno/OneDrive/Documentos/ProgramacaoEmbarcada/projeto_final.X/lcd.c: 65:     
      +                          if((cmd == 0x02)||(cmd == 0x01)){
  7138  005678  0E02               	movlw	2
  7139  00567A  1851               	xorwf	lcdCommand@cmd^0,w,c
  7140  00567C  B4D8               	btfsc	status,2,c
  7141  00567E  EF43  F02B         	goto	u2991
  7142  005682  EF45  F02B         	goto	u2990
  7143  005686                     u2991:
  7144  005686  EF4D  F02B         	goto	l3464
  7145  00568A                     u2990:
  7146  00568A  0451               	decf	lcdCommand@cmd^0,w,c
  7147  00568C  A4D8               	btfss	status,2,c
  7148  00568E  EF4B  F02B         	goto	u3001
  7149  005692  EF4D  F02B         	goto	u3000
  7150  005696                     u3001:
  7151  005696  EF51  F02B         	goto	l3466
  7152  00569A                     u3000:
  7153  00569A                     l3464:
  7154                           
  7155                           ;C:/Users/bruno/OneDrive/Documentos/ProgramacaoEmbarcada/projeto_final.X/lcd.c: 66:     
      +                             Delay2ms();
  7156  00569A  EC56  F029         	call	_Delay2ms	;wreg free
  7157                           
  7158                           ;C:/Users/bruno/OneDrive/Documentos/ProgramacaoEmbarcada/projeto_final.X/lcd.c: 67:     
      +                          }else{
  7159  00569E  EF53  F02B         	goto	l202
  7160  0056A2                     l3466:
  7161                           
  7162                           ;C:/Users/bruno/OneDrive/Documentos/ProgramacaoEmbarcada/projeto_final.X/lcd.c: 68:     
      +                          Delay40us();
  7163  0056A2  EC4A  F029         	call	_Delay40us	;wreg free
  7164  0056A6                     l202:
  7165  0056A6  0012               	return		;funcret
  7166  0056A8                     __end_of_lcdCommand:
  7167                           	callstack 0
  7168                           
  7169 ;; *************** function _Delay2ms *****************
  7170 ;; Defined at:
  7171 ;;		line 37 in file "C:/Users/bruno/OneDrive/Documentos/ProgramacaoEmbarcada/projeto_final.X/lcd.c"
  7172 ;; Parameters:    Size  Location     Type
  7173 ;;		None
  7174 ;; Auto vars:     Size  Location     Type
  7175 ;;  i               1    1[COMRAM] unsigned char 
  7176 ;; Return value:  Size  Location     Type
  7177 ;;                  1    wreg      void 
  7178 ;; Registers used:
  7179 ;;		wreg, status,2, status,0, cstack
  7180 ;; Tracked objects:
  7181 ;;		On entry : 0/0
  7182 ;;		On exit  : 0/0
  7183 ;;		Unchanged: 0/0
  7184 ;; Data sizes:     COMRAM   BANK0   BANK1   BANK2   BANK3   BANK4   BANK5
  7185 ;;      Params:         0       0       0       0       0       0       0
  7186 ;;      Locals:         1       0       0       0       0       0       0
  7187 ;;      Temps:          0       0       0       0       0       0       0
  7188 ;;      Totals:         1       0       0       0       0       0       0
  7189 ;;Total ram usage:        1 bytes
  7190 ;; Hardware stack levels used: 1
  7191 ;; Hardware stack levels required when called: 1
  7192 ;; This function calls:
  7193 ;;		_Delay40us
  7194 ;; This function is called by:
  7195 ;;		_lcdCommand
  7196 ;;		_lcdInit
  7197 ;; This function uses a non-reentrant model
  7198 ;;
  7199                           
  7200                           	psect	text17
  7201  0052AC                     __ptext17:
  7202                           	callstack 0
  7203  0052AC                     _Delay2ms:
  7204                           	callstack 26
  7205  0052AC                     
  7206                           ;C:/Users/bruno/OneDrive/Documentos/ProgramacaoEmbarcada/projeto_final.X/lcd.c: 39:  uns
      +                          igned char i;;C:/Users/bruno/OneDrive/Documentos/ProgramacaoEmbarcada/projeto_final.X/lc
      +                          d.c: 40:  for(i=0; i < 50; i++)
  7207  0052AC  0E00               	movlw	0
  7208  0052AE  6E4B               	movwf	Delay2ms@i^0,c
  7209  0052B0                     l3318:
  7210                           
  7211                           ;C:/Users/bruno/OneDrive/Documentos/ProgramacaoEmbarcada/projeto_final.X/lcd.c: 41:  {;C
      +                          :/Users/bruno/OneDrive/Documentos/ProgramacaoEmbarcada/projeto_final.X/lcd.c: 42:   Dela
      +                          y40us();
  7212  0052B0  EC4A  F029         	call	_Delay40us	;wreg free
  7213  0052B4                     
  7214                           ;C:/Users/bruno/OneDrive/Documentos/ProgramacaoEmbarcada/projeto_final.X/lcd.c: 43:  }
  7215  0052B4  2A4B               	incf	Delay2ms@i^0,f,c
  7216  0052B6  0E31               	movlw	49
  7217  0052B8  644B               	cpfsgt	Delay2ms@i^0,c
  7218  0052BA  EF61  F029         	goto	u2721
  7219  0052BE  EF63  F029         	goto	u2720
  7220  0052C2                     u2721:
  7221  0052C2  EF58  F029         	goto	l3318
  7222  0052C6                     u2720:
  7223  0052C6  0012               	return		;funcret
  7224  0052C8                     __end_of_Delay2ms:
  7225                           	callstack 0
  7226                           
  7227 ;; *************** function _lcdData *****************
  7228 ;; Defined at:
  7229 ;;		line 74 in file "C:/Users/bruno/OneDrive/Documentos/ProgramacaoEmbarcada/projeto_final.X/lcd.c"
  7230 ;; Parameters:    Size  Location     Type
  7231 ;;  valor           1    wreg     unsigned char 
  7232 ;; Auto vars:     Size  Location     Type
  7233 ;;  valor           1    6[COMRAM] unsigned char 
  7234 ;;  old_D           1    7[COMRAM] unsigned char 
  7235 ;; Return value:  Size  Location     Type
  7236 ;;                  1    wreg      void 
  7237 ;; Registers used:
  7238 ;;		wreg, status,2, status,0, cstack
  7239 ;; Tracked objects:
  7240 ;;		On entry : 0/0
  7241 ;;		On exit  : 0/0
  7242 ;;		Unchanged: 0/0
  7243 ;; Data sizes:     COMRAM   BANK0   BANK1   BANK2   BANK3   BANK4   BANK5
  7244 ;;      Params:         0       0       0       0       0       0       0
  7245 ;;      Locals:         2       0       0       0       0       0       0
  7246 ;;      Temps:          0       0       0       0       0       0       0
  7247 ;;      Totals:         2       0       0       0       0       0       0
  7248 ;;Total ram usage:        2 bytes
  7249 ;; Hardware stack levels used: 1
  7250 ;; Hardware stack levels required when called: 1
  7251 ;; This function calls:
  7252 ;;		_Delay40us
  7253 ;;		_digitalWrite
  7254 ;; This function is called by:
  7255 ;;		_main
  7256 ;;		_tocarAlarme
  7257 ;; This function uses a non-reentrant model
  7258 ;;
  7259                           
  7260                           	psect	text18
  7261  0052EE                     __ptext18:
  7262                           	callstack 0
  7263  0052EE                     _lcdData:
  7264                           	callstack 28
  7265                           
  7266                           ;incstack = 0
  7267                           ;lcdData@valor stored from wreg
  7268  0052EE  6E50               	movwf	lcdData@valor^0,c
  7269  0052F0                     
  7270                           ;C:/Users/bruno/OneDrive/Documentos/ProgramacaoEmbarcada/projeto_final.X/lcd.c: 74: void
      +                           lcdData(unsigned char valor);C:/Users/bruno/OneDrive/Documentos/ProgramacaoEmbarcada/pr
      +                          ojeto_final.X/lcd.c: 75: {;C:/Users/bruno/OneDrive/Documentos/ProgramacaoEmbarcada/proje
      +                          to_final.X/lcd.c: 77:     unsigned char old_D;;C:/Users/bruno/OneDrive/Documentos/Progra
      +                          macaoEmbarcada/projeto_final.X/lcd.c: 78:     old_D = PORTD;
  7271  0052F0  CF83 F051          	movff	3971,lcdData@old_D	;volatile
  7272  0052F4                     
  7273                           ;C:/Users/bruno/OneDrive/Documentos/ProgramacaoEmbarcada/projeto_final.X/lcd.c: 80:     
      +                          TRISD = 0x00;
  7274  0052F4  0E00               	movlw	0
  7275  0052F6  6E95               	movwf	149,c	;volatile
  7276  0052F8                     
  7277                           ;C:/Users/bruno/OneDrive/Documentos/ProgramacaoEmbarcada/projeto_final.X/lcd.c: 81:  dig
      +                          italWrite(PIN_E2, 1);
  7278  0052F8  0E00               	movlw	0
  7279  0052FA  6E4B               	movwf	(digitalWrite@pin+1)^0,c
  7280  0052FC  0E22               	movlw	34
  7281  0052FE  6E4A               	movwf	digitalWrite@pin^0,c
  7282  005300  0E00               	movlw	0
  7283  005302  6E4D               	movwf	(digitalWrite@value+1)^0,c
  7284  005304  0E01               	movlw	1
  7285  005306  6E4C               	movwf	digitalWrite@value^0,c
  7286  005308  ECEB  F02E         	call	_digitalWrite	;wreg free
  7287  00530C                     
  7288                           ;C:/Users/bruno/OneDrive/Documentos/ProgramacaoEmbarcada/projeto_final.X/lcd.c: 83:  POR
      +                          TD = valor;
  7289  00530C  C050  FF83         	movff	lcdData@valor,3971	;volatile
  7290  005310                     
  7291                           ;C:/Users/bruno/OneDrive/Documentos/ProgramacaoEmbarcada/projeto_final.X/lcd.c: 85:     
      +                          digitalWrite(PIN_E1, 1);
  7292  005310  0E00               	movlw	0
  7293  005312  6E4B               	movwf	(digitalWrite@pin+1)^0,c
  7294  005314  0E21               	movlw	33
  7295  005316  6E4A               	movwf	digitalWrite@pin^0,c
  7296  005318  0E00               	movlw	0
  7297  00531A  6E4D               	movwf	(digitalWrite@value+1)^0,c
  7298  00531C  0E01               	movlw	1
  7299  00531E  6E4C               	movwf	digitalWrite@value^0,c
  7300  005320  ECEB  F02E         	call	_digitalWrite	;wreg free
  7301  005324                     
  7302                           ;C:/Users/bruno/OneDrive/Documentos/ProgramacaoEmbarcada/projeto_final.X/lcd.c: 86:  dig
      +                          italWrite(PIN_E1, 0);
  7303  005324  0E00               	movlw	0
  7304  005326  6E4B               	movwf	(digitalWrite@pin+1)^0,c
  7305  005328  0E21               	movlw	33
  7306  00532A  6E4A               	movwf	digitalWrite@pin^0,c
  7307  00532C  0E00               	movlw	0
  7308  00532E  6E4D               	movwf	(digitalWrite@value+1)^0,c
  7309  005330  0E00               	movlw	0
  7310  005332  6E4C               	movwf	digitalWrite@value^0,c
  7311  005334  ECEB  F02E         	call	_digitalWrite	;wreg free
  7312  005338                     
  7313                           ;C:/Users/bruno/OneDrive/Documentos/ProgramacaoEmbarcada/projeto_final.X/lcd.c: 88:     
      +                          PORTD= old_D;
  7314  005338  C051  FF83         	movff	lcdData@old_D,3971	;volatile
  7315  00533C                     
  7316                           ;C:/Users/bruno/OneDrive/Documentos/ProgramacaoEmbarcada/projeto_final.X/lcd.c: 90:  Del
      +                          ay40us();
  7317  00533C  EC4A  F029         	call	_Delay40us	;wreg free
  7318  005340  0012               	return		;funcret
  7319  005342                     __end_of_lcdData:
  7320                           	callstack 0
  7321                           
  7322 ;; *************** function _digitalWrite *****************
  7323 ;; Defined at:
  7324 ;;		line 14 in file "C:/Users/bruno/OneDrive/Documentos/ProgramacaoEmbarcada/projeto_final.X/io.c"
  7325 ;; Parameters:    Size  Location     Type
  7326 ;;  pin             2    0[COMRAM] int 
  7327 ;;  value           2    2[COMRAM] int 
  7328 ;; Auto vars:     Size  Location     Type
  7329 ;;		None
  7330 ;; Return value:  Size  Location     Type
  7331 ;;                  1    wreg      void 
  7332 ;; Registers used:
  7333 ;;		wreg, status,2, status,0
  7334 ;; Tracked objects:
  7335 ;;		On entry : 0/0
  7336 ;;		On exit  : 0/0
  7337 ;;		Unchanged: 0/0
  7338 ;; Data sizes:     COMRAM   BANK0   BANK1   BANK2   BANK3   BANK4   BANK5
  7339 ;;      Params:         4       0       0       0       0       0       0
  7340 ;;      Locals:         0       0       0       0       0       0       0
  7341 ;;      Temps:          2       0       0       0       0       0       0
  7342 ;;      Totals:         6       0       0       0       0       0       0
  7343 ;;Total ram usage:        6 bytes
  7344 ;; Hardware stack levels used: 1
  7345 ;; This function calls:
  7346 ;;		Nothing
  7347 ;; This function is called by:
  7348 ;;		_lcdCommand
  7349 ;;		_lcdData
  7350 ;; This function uses a non-reentrant model
  7351 ;;
  7352                           
  7353                           	psect	text19
  7354  005DD6                     __ptext19:
  7355                           	callstack 0
  7356  005DD6                     _digitalWrite:
  7357                           	callstack 27
  7358  005DD6                     
  7359                           ;C:/Users/bruno/OneDrive/Documentos/ProgramacaoEmbarcada/projeto_final.X/io.c: 16:     i
      +                          f(pin <8){
  7360  005DD6  BE4B               	btfsc	(digitalWrite@pin+1)^0,7,c
  7361  005DD8  EFF9  F02E         	goto	u2490
  7362  005DDC  504B               	movf	(digitalWrite@pin+1)^0,w,c
  7363  005DDE  E107               	bnz	u2491
  7364  005DE0  0E08               	movlw	8
  7365  005DE2  5C4A               	subwf	digitalWrite@pin^0,w,c
  7366  005DE4  B0D8               	btfsc	status,0,c
  7367  005DE6  EFF7  F02E         	goto	u2491
  7368  005DEA  EFF9  F02E         	goto	u2490
  7369  005DEE                     u2491:
  7370  005DEE  EF23  F02F         	goto	l3250
  7371  005DF2                     u2490:
  7372  005DF2                     
  7373                           ;C:/Users/bruno/OneDrive/Documentos/ProgramacaoEmbarcada/projeto_final.X/io.c: 17:      
      +                             if (value){ ((PORTA) |= (1<<(pin)));}
  7374  005DF2  504C               	movf	digitalWrite@value^0,w,c
  7375  005DF4  104D               	iorwf	(digitalWrite@value+1)^0,w,c
  7376  005DF6  B4D8               	btfsc	status,2,c
  7377  005DF8  EF00  F02F         	goto	u2501
  7378  005DFC  EF02  F02F         	goto	u2500
  7379  005E00                     u2501:
  7380  005E00  EF12  F02F         	goto	l3248
  7381  005E04                     u2500:
  7382  005E04  C04A  F04E         	movff	digitalWrite@pin,??_digitalWrite
  7383  005E08  0E01               	movlw	1
  7384  005E0A  6E4F               	movwf	(??_digitalWrite+1)^0,c
  7385  005E0C  2A4E               	incf	??_digitalWrite^0,f,c
  7386  005E0E  EF0B  F02F         	goto	u2514
  7387  005E12                     u2515:
  7388  005E12  90D8               	bcf	status,0,c
  7389  005E14  364F               	rlcf	(??_digitalWrite+1)^0,f,c
  7390  005E16                     u2514:
  7391  005E16  2E4E               	decfsz	??_digitalWrite^0,f,c
  7392  005E18  EF09  F02F         	goto	u2515
  7393  005E1C  504F               	movf	(??_digitalWrite+1)^0,w,c
  7394  005E1E  1280               	iorwf	128,f,c	;volatile
  7395  005E20  EF11  F030         	goto	l42
  7396  005E24                     l3248:
  7397  005E24  C04A  F04E         	movff	digitalWrite@pin,??_digitalWrite
  7398  005E28  0E01               	movlw	1
  7399  005E2A  6E4F               	movwf	(??_digitalWrite+1)^0,c
  7400  005E2C  2A4E               	incf	??_digitalWrite^0,f,c
  7401  005E2E  EF1B  F02F         	goto	u2524
  7402  005E32                     u2525:
  7403  005E32  90D8               	bcf	status,0,c
  7404  005E34  364F               	rlcf	(??_digitalWrite+1)^0,f,c
  7405  005E36                     u2524:
  7406  005E36  2E4E               	decfsz	??_digitalWrite^0,f,c
  7407  005E38  EF19  F02F         	goto	u2525
  7408  005E3C  504F               	movf	(??_digitalWrite+1)^0,w,c
  7409  005E3E  0AFF               	xorlw	255
  7410  005E40  1680               	andwf	128,f,c	;volatile
  7411  005E42  EF11  F030         	goto	l42
  7412  005E46                     l3250:
  7413  005E46  BE4B               	btfsc	(digitalWrite@pin+1)^0,7,c
  7414  005E48  EF31  F02F         	goto	u2530
  7415  005E4C  504B               	movf	(digitalWrite@pin+1)^0,w,c
  7416  005E4E  E107               	bnz	u2531
  7417  005E50  0E10               	movlw	16
  7418  005E52  5C4A               	subwf	digitalWrite@pin^0,w,c
  7419  005E54  B0D8               	btfsc	status,0,c
  7420  005E56  EF2F  F02F         	goto	u2531
  7421  005E5A  EF31  F02F         	goto	u2530
  7422  005E5E                     u2531:
  7423  005E5E  EF5F  F02F         	goto	l3258
  7424  005E62                     u2530:
  7425  005E62                     
  7426                           ;C:/Users/bruno/OneDrive/Documentos/ProgramacaoEmbarcada/projeto_final.X/io.c: 20:      
      +                             pin -=8;
  7427  005E62  0EF8               	movlw	248
  7428  005E64  264A               	addwf	digitalWrite@pin^0,f,c
  7429  005E66  0EFF               	movlw	255
  7430  005E68  224B               	addwfc	(digitalWrite@pin+1)^0,f,c
  7431                           
  7432                           ;C:/Users/bruno/OneDrive/Documentos/ProgramacaoEmbarcada/projeto_final.X/io.c: 21:      
      +                             if (value){ ((PORTB) |= (1<<(pin)));}
  7433  005E6A  504C               	movf	digitalWrite@value^0,w,c
  7434  005E6C  104D               	iorwf	(digitalWrite@value+1)^0,w,c
  7435  005E6E  B4D8               	btfsc	status,2,c
  7436  005E70  EF3C  F02F         	goto	u2541
  7437  005E74  EF3E  F02F         	goto	u2540
  7438  005E78                     u2541:
  7439  005E78  EF4E  F02F         	goto	l3256
  7440  005E7C                     u2540:
  7441  005E7C  C04A  F04E         	movff	digitalWrite@pin,??_digitalWrite
  7442  005E80  0E01               	movlw	1
  7443  005E82  6E4F               	movwf	(??_digitalWrite+1)^0,c
  7444  005E84  2A4E               	incf	??_digitalWrite^0,f,c
  7445  005E86  EF47  F02F         	goto	u2554
  7446  005E8A                     u2555:
  7447  005E8A  90D8               	bcf	status,0,c
  7448  005E8C  364F               	rlcf	(??_digitalWrite+1)^0,f,c
  7449  005E8E                     u2554:
  7450  005E8E  2E4E               	decfsz	??_digitalWrite^0,f,c
  7451  005E90  EF45  F02F         	goto	u2555
  7452  005E94  504F               	movf	(??_digitalWrite+1)^0,w,c
  7453  005E96  1281               	iorwf	129,f,c	;volatile
  7454  005E98  EF11  F030         	goto	l42
  7455  005E9C                     l3256:
  7456  005E9C  C04A  F04E         	movff	digitalWrite@pin,??_digitalWrite
  7457  005EA0  0E01               	movlw	1
  7458  005EA2  6E4F               	movwf	(??_digitalWrite+1)^0,c
  7459  005EA4  2A4E               	incf	??_digitalWrite^0,f,c
  7460  005EA6  EF57  F02F         	goto	u2564
  7461  005EAA                     u2565:
  7462  005EAA  90D8               	bcf	status,0,c
  7463  005EAC  364F               	rlcf	(??_digitalWrite+1)^0,f,c
  7464  005EAE                     u2564:
  7465  005EAE  2E4E               	decfsz	??_digitalWrite^0,f,c
  7466  005EB0  EF55  F02F         	goto	u2565
  7467  005EB4  504F               	movf	(??_digitalWrite+1)^0,w,c
  7468  005EB6  0AFF               	xorlw	255
  7469  005EB8  1681               	andwf	129,f,c	;volatile
  7470  005EBA  EF11  F030         	goto	l42
  7471  005EBE                     l3258:
  7472  005EBE  BE4B               	btfsc	(digitalWrite@pin+1)^0,7,c
  7473  005EC0  EF6D  F02F         	goto	u2570
  7474  005EC4  504B               	movf	(digitalWrite@pin+1)^0,w,c
  7475  005EC6  E107               	bnz	u2571
  7476  005EC8  0E18               	movlw	24
  7477  005ECA  5C4A               	subwf	digitalWrite@pin^0,w,c
  7478  005ECC  B0D8               	btfsc	status,0,c
  7479  005ECE  EF6B  F02F         	goto	u2571
  7480  005ED2  EF6D  F02F         	goto	u2570
  7481  005ED6                     u2571:
  7482  005ED6  EF9B  F02F         	goto	l3266
  7483  005EDA                     u2570:
  7484  005EDA                     
  7485                           ;C:/Users/bruno/OneDrive/Documentos/ProgramacaoEmbarcada/projeto_final.X/io.c: 24:      
      +                             pin -=16;
  7486  005EDA  0EF0               	movlw	240
  7487  005EDC  264A               	addwf	digitalWrite@pin^0,f,c
  7488  005EDE  0EFF               	movlw	255
  7489  005EE0  224B               	addwfc	(digitalWrite@pin+1)^0,f,c
  7490                           
  7491                           ;C:/Users/bruno/OneDrive/Documentos/ProgramacaoEmbarcada/projeto_final.X/io.c: 25:      
      +                             if (value){ ((PORTC) |= (1<<(pin)));}
  7492  005EE2  504C               	movf	digitalWrite@value^0,w,c
  7493  005EE4  104D               	iorwf	(digitalWrite@value+1)^0,w,c
  7494  005EE6  B4D8               	btfsc	status,2,c
  7495  005EE8  EF78  F02F         	goto	u2581
  7496  005EEC  EF7A  F02F         	goto	u2580
  7497  005EF0                     u2581:
  7498  005EF0  EF8A  F02F         	goto	l3264
  7499  005EF4                     u2580:
  7500  005EF4  C04A  F04E         	movff	digitalWrite@pin,??_digitalWrite
  7501  005EF8  0E01               	movlw	1
  7502  005EFA  6E4F               	movwf	(??_digitalWrite+1)^0,c
  7503  005EFC  2A4E               	incf	??_digitalWrite^0,f,c
  7504  005EFE  EF83  F02F         	goto	u2594
  7505  005F02                     u2595:
  7506  005F02  90D8               	bcf	status,0,c
  7507  005F04  364F               	rlcf	(??_digitalWrite+1)^0,f,c
  7508  005F06                     u2594:
  7509  005F06  2E4E               	decfsz	??_digitalWrite^0,f,c
  7510  005F08  EF81  F02F         	goto	u2595
  7511  005F0C  504F               	movf	(??_digitalWrite+1)^0,w,c
  7512  005F0E  1282               	iorwf	130,f,c	;volatile
  7513  005F10  EF11  F030         	goto	l42
  7514  005F14                     l3264:
  7515  005F14  C04A  F04E         	movff	digitalWrite@pin,??_digitalWrite
  7516  005F18  0E01               	movlw	1
  7517  005F1A  6E4F               	movwf	(??_digitalWrite+1)^0,c
  7518  005F1C  2A4E               	incf	??_digitalWrite^0,f,c
  7519  005F1E  EF93  F02F         	goto	u2604
  7520  005F22                     u2605:
  7521  005F22  90D8               	bcf	status,0,c
  7522  005F24  364F               	rlcf	(??_digitalWrite+1)^0,f,c
  7523  005F26                     u2604:
  7524  005F26  2E4E               	decfsz	??_digitalWrite^0,f,c
  7525  005F28  EF91  F02F         	goto	u2605
  7526  005F2C  504F               	movf	(??_digitalWrite+1)^0,w,c
  7527  005F2E  0AFF               	xorlw	255
  7528  005F30  1682               	andwf	130,f,c	;volatile
  7529  005F32  EF11  F030         	goto	l42
  7530  005F36                     l3266:
  7531  005F36  BE4B               	btfsc	(digitalWrite@pin+1)^0,7,c
  7532  005F38  EFA9  F02F         	goto	u2610
  7533  005F3C  504B               	movf	(digitalWrite@pin+1)^0,w,c
  7534  005F3E  E107               	bnz	u2611
  7535  005F40  0E20               	movlw	32
  7536  005F42  5C4A               	subwf	digitalWrite@pin^0,w,c
  7537  005F44  B0D8               	btfsc	status,0,c
  7538  005F46  EFA7  F02F         	goto	u2611
  7539  005F4A  EFA9  F02F         	goto	u2610
  7540  005F4E                     u2611:
  7541  005F4E  EFD7  F02F         	goto	l3274
  7542  005F52                     u2610:
  7543  005F52                     
  7544                           ;C:/Users/bruno/OneDrive/Documentos/ProgramacaoEmbarcada/projeto_final.X/io.c: 28:      
      +                             pin -=24;
  7545  005F52  0EE8               	movlw	232
  7546  005F54  264A               	addwf	digitalWrite@pin^0,f,c
  7547  005F56  0EFF               	movlw	255
  7548  005F58  224B               	addwfc	(digitalWrite@pin+1)^0,f,c
  7549                           
  7550                           ;C:/Users/bruno/OneDrive/Documentos/ProgramacaoEmbarcada/projeto_final.X/io.c: 29:      
      +                             if (value){ ((PORTD) |= (1<<(pin)));}
  7551  005F5A  504C               	movf	digitalWrite@value^0,w,c
  7552  005F5C  104D               	iorwf	(digitalWrite@value+1)^0,w,c
  7553  005F5E  B4D8               	btfsc	status,2,c
  7554  005F60  EFB4  F02F         	goto	u2621
  7555  005F64  EFB6  F02F         	goto	u2620
  7556  005F68                     u2621:
  7557  005F68  EFC6  F02F         	goto	l3272
  7558  005F6C                     u2620:
  7559  005F6C  C04A  F04E         	movff	digitalWrite@pin,??_digitalWrite
  7560  005F70  0E01               	movlw	1
  7561  005F72  6E4F               	movwf	(??_digitalWrite+1)^0,c
  7562  005F74  2A4E               	incf	??_digitalWrite^0,f,c
  7563  005F76  EFBF  F02F         	goto	u2634
  7564  005F7A                     u2635:
  7565  005F7A  90D8               	bcf	status,0,c
  7566  005F7C  364F               	rlcf	(??_digitalWrite+1)^0,f,c
  7567  005F7E                     u2634:
  7568  005F7E  2E4E               	decfsz	??_digitalWrite^0,f,c
  7569  005F80  EFBD  F02F         	goto	u2635
  7570  005F84  504F               	movf	(??_digitalWrite+1)^0,w,c
  7571  005F86  1283               	iorwf	131,f,c	;volatile
  7572  005F88  EF11  F030         	goto	l42
  7573  005F8C                     l3272:
  7574  005F8C  C04A  F04E         	movff	digitalWrite@pin,??_digitalWrite
  7575  005F90  0E01               	movlw	1
  7576  005F92  6E4F               	movwf	(??_digitalWrite+1)^0,c
  7577  005F94  2A4E               	incf	??_digitalWrite^0,f,c
  7578  005F96  EFCF  F02F         	goto	u2644
  7579  005F9A                     u2645:
  7580  005F9A  90D8               	bcf	status,0,c
  7581  005F9C  364F               	rlcf	(??_digitalWrite+1)^0,f,c
  7582  005F9E                     u2644:
  7583  005F9E  2E4E               	decfsz	??_digitalWrite^0,f,c
  7584  005FA0  EFCD  F02F         	goto	u2645
  7585  005FA4  504F               	movf	(??_digitalWrite+1)^0,w,c
  7586  005FA6  0AFF               	xorlw	255
  7587  005FA8  1683               	andwf	131,f,c	;volatile
  7588  005FAA  EF11  F030         	goto	l42
  7589  005FAE                     l3274:
  7590  005FAE  BE4B               	btfsc	(digitalWrite@pin+1)^0,7,c
  7591  005FB0  EFE5  F02F         	goto	u2650
  7592  005FB4  504B               	movf	(digitalWrite@pin+1)^0,w,c
  7593  005FB6  E107               	bnz	u2651
  7594  005FB8  0E28               	movlw	40
  7595  005FBA  5C4A               	subwf	digitalWrite@pin^0,w,c
  7596  005FBC  B0D8               	btfsc	status,0,c
  7597  005FBE  EFE3  F02F         	goto	u2651
  7598  005FC2  EFE5  F02F         	goto	u2650
  7599  005FC6                     u2651:
  7600  005FC6  EF11  F030         	goto	l42
  7601  005FCA                     u2650:
  7602  005FCA                     
  7603                           ;C:/Users/bruno/OneDrive/Documentos/ProgramacaoEmbarcada/projeto_final.X/io.c: 32:      
      +                             pin -=32;
  7604  005FCA  0EE0               	movlw	224
  7605  005FCC  264A               	addwf	digitalWrite@pin^0,f,c
  7606  005FCE  0EFF               	movlw	255
  7607  005FD0  224B               	addwfc	(digitalWrite@pin+1)^0,f,c
  7608                           
  7609                           ;C:/Users/bruno/OneDrive/Documentos/ProgramacaoEmbarcada/projeto_final.X/io.c: 33:      
      +                             if (value){ ((PORTE) |= (1<<(pin)));}
  7610  005FD2  504C               	movf	digitalWrite@value^0,w,c
  7611  005FD4  104D               	iorwf	(digitalWrite@value+1)^0,w,c
  7612  005FD6  B4D8               	btfsc	status,2,c
  7613  005FD8  EFF0  F02F         	goto	u2661
  7614  005FDC  EFF2  F02F         	goto	u2660
  7615  005FE0                     u2661:
  7616  005FE0  EF02  F030         	goto	l3280
  7617  005FE4                     u2660:
  7618  005FE4  C04A  F04E         	movff	digitalWrite@pin,??_digitalWrite
  7619  005FE8  0E01               	movlw	1
  7620  005FEA  6E4F               	movwf	(??_digitalWrite+1)^0,c
  7621  005FEC  2A4E               	incf	??_digitalWrite^0,f,c
  7622  005FEE  EFFB  F02F         	goto	u2674
  7623  005FF2                     u2675:
  7624  005FF2  90D8               	bcf	status,0,c
  7625  005FF4  364F               	rlcf	(??_digitalWrite+1)^0,f,c
  7626  005FF6                     u2674:
  7627  005FF6  2E4E               	decfsz	??_digitalWrite^0,f,c
  7628  005FF8  EFF9  F02F         	goto	u2675
  7629  005FFC  504F               	movf	(??_digitalWrite+1)^0,w,c
  7630  005FFE  1284               	iorwf	132,f,c	;volatile
  7631  006000  EF11  F030         	goto	l42
  7632  006004                     l3280:
  7633  006004  C04A  F04E         	movff	digitalWrite@pin,??_digitalWrite
  7634  006008  0E01               	movlw	1
  7635  00600A  6E4F               	movwf	(??_digitalWrite+1)^0,c
  7636  00600C  2A4E               	incf	??_digitalWrite^0,f,c
  7637  00600E  EF0B  F030         	goto	u2684
  7638  006012                     u2685:
  7639  006012  90D8               	bcf	status,0,c
  7640  006014  364F               	rlcf	(??_digitalWrite+1)^0,f,c
  7641  006016                     u2684:
  7642  006016  2E4E               	decfsz	??_digitalWrite^0,f,c
  7643  006018  EF09  F030         	goto	u2685
  7644  00601C  504F               	movf	(??_digitalWrite+1)^0,w,c
  7645  00601E  0AFF               	xorlw	255
  7646  006020  1684               	andwf	132,f,c	;volatile
  7647  006022                     l42:
  7648  006022  0012               	return		;funcret
  7649  006024                     __end_of_digitalWrite:
  7650                           	callstack 0
  7651                           
  7652 ;; *************** function _Delay40us *****************
  7653 ;; Defined at:
  7654 ;;		line 31 in file "C:/Users/bruno/OneDrive/Documentos/ProgramacaoEmbarcada/projeto_final.X/lcd.c"
  7655 ;; Parameters:    Size  Location     Type
  7656 ;;		None
  7657 ;; Auto vars:     Size  Location     Type
  7658 ;;  i               1    0[COMRAM] unsigned char 
  7659 ;; Return value:  Size  Location     Type
  7660 ;;                  1    wreg      void 
  7661 ;; Registers used:
  7662 ;;		wreg, status,2, status,0
  7663 ;; Tracked objects:
  7664 ;;		On entry : 0/0
  7665 ;;		On exit  : 0/0
  7666 ;;		Unchanged: 0/0
  7667 ;; Data sizes:     COMRAM   BANK0   BANK1   BANK2   BANK3   BANK4   BANK5
  7668 ;;      Params:         0       0       0       0       0       0       0
  7669 ;;      Locals:         1       0       0       0       0       0       0
  7670 ;;      Temps:          0       0       0       0       0       0       0
  7671 ;;      Totals:         1       0       0       0       0       0       0
  7672 ;;Total ram usage:        1 bytes
  7673 ;; Hardware stack levels used: 1
  7674 ;; This function calls:
  7675 ;;		Nothing
  7676 ;; This function is called by:
  7677 ;;		_Delay2ms
  7678 ;;		_lcdCommand
  7679 ;;		_lcdData
  7680 ;; This function uses a non-reentrant model
  7681 ;;
  7682                           
  7683                           	psect	text20
  7684  005294                     __ptext20:
  7685                           	callstack 0
  7686  005294                     _Delay40us:
  7687                           	callstack 27
  7688  005294                     
  7689                           ;C:/Users/bruno/OneDrive/Documentos/ProgramacaoEmbarcada/projeto_final.X/lcd.c: 33:  uns
      +                          igned char i;;C:/Users/bruno/OneDrive/Documentos/ProgramacaoEmbarcada/projeto_final.X/lc
      +                          d.c: 34:  for(i=0; i < 25; i++);
  7690  005294  0E00               	movlw	0
  7691  005296  6E4A               	movwf	Delay40us@i^0,c
  7692  005298                     l3238:
  7693  005298  2A4A               	incf	Delay40us@i^0,f,c
  7694  00529A  0E18               	movlw	24
  7695  00529C  644A               	cpfsgt	Delay40us@i^0,c
  7696  00529E  EF53  F029         	goto	u2481
  7697  0052A2  EF55  F029         	goto	u2480
  7698  0052A6                     u2481:
  7699  0052A6  EF4C  F029         	goto	l3238
  7700  0052AA                     u2480:
  7701  0052AA  0012               	return		;funcret
  7702  0052AC                     __end_of_Delay40us:
  7703                           	callstack 0
  7704                           
  7705 ;; *************** function _kpRead *****************
  7706 ;; Defined at:
  7707 ;;		line 35 in file "C:/Users/bruno/OneDrive/Documentos/ProgramacaoEmbarcada/projeto_final.X/keypad.c"
  7708 ;; Parameters:    Size  Location     Type
  7709 ;;		None
  7710 ;; Auto vars:     Size  Location     Type
  7711 ;;		None
  7712 ;; Return value:  Size  Location     Type
  7713 ;;                  2    0[COMRAM] unsigned int 
  7714 ;; Registers used:
  7715 ;;		None
  7716 ;; Tracked objects:
  7717 ;;		On entry : 0/0
  7718 ;;		On exit  : 0/0
  7719 ;;		Unchanged: 0/0
  7720 ;; Data sizes:     COMRAM   BANK0   BANK1   BANK2   BANK3   BANK4   BANK5
  7721 ;;      Params:         2       0       0       0       0       0       0
  7722 ;;      Locals:         0       0       0       0       0       0       0
  7723 ;;      Temps:          0       0       0       0       0       0       0
  7724 ;;      Totals:         2       0       0       0       0       0       0
  7725 ;;Total ram usage:        2 bytes
  7726 ;; Hardware stack levels used: 1
  7727 ;; This function calls:
  7728 ;;		Nothing
  7729 ;; This function is called by:
  7730 ;;		_main
  7731 ;;		_tocarAlarme
  7732 ;; This function uses a non-reentrant model
  7733 ;;
  7734                           
  7735                           	psect	text21
  7736  00522C                     __ptext21:
  7737                           	callstack 0
  7738  00522C                     _kpRead:
  7739                           	callstack 29
  7740  00522C                     
  7741                           ;C:/Users/bruno/OneDrive/Documentos/ProgramacaoEmbarcada/projeto_final.X/keypad.c: 36:  
      +                             return valor;
  7742  00522C  C047  F04A         	movff	_valor,?_kpRead
  7743  005230  C048  F04B         	movff	_valor+1,?_kpRead+1
  7744  005234  0012               	return		;funcret
  7745  005236                     __end_of_kpRead:
  7746                           	callstack 0
  7747                           
  7748 ;; *************** function _kpInit *****************
  7749 ;; Defined at:
  7750 ;;		line 87 in file "C:/Users/bruno/OneDrive/Documentos/ProgramacaoEmbarcada/projeto_final.X/keypad.c"
  7751 ;; Parameters:    Size  Location     Type
  7752 ;;		None
  7753 ;; Auto vars:     Size  Location     Type
  7754 ;;		None
  7755 ;; Return value:  Size  Location     Type
  7756 ;;                  1    wreg      void 
  7757 ;; Registers used:
  7758 ;;		wreg, status,2, status,0
  7759 ;; Tracked objects:
  7760 ;;		On entry : 0/0
  7761 ;;		On exit  : 0/0
  7762 ;;		Unchanged: 0/0
  7763 ;; Data sizes:     COMRAM   BANK0   BANK1   BANK2   BANK3   BANK4   BANK5
  7764 ;;      Params:         0       0       0       0       0       0       0
  7765 ;;      Locals:         0       0       0       0       0       0       0
  7766 ;;      Temps:          0       0       0       0       0       0       0
  7767 ;;      Totals:         0       0       0       0       0       0       0
  7768 ;;Total ram usage:        0 bytes
  7769 ;; Hardware stack levels used: 1
  7770 ;; This function calls:
  7771 ;;		Nothing
  7772 ;; This function is called by:
  7773 ;;		_main
  7774 ;;		_tocarAlarme
  7775 ;; This function uses a non-reentrant model
  7776 ;;
  7777                           
  7778                           	psect	text22
  7779  005222                     __ptext22:
  7780                           	callstack 0
  7781  005222                     _kpInit:
  7782                           	callstack 29
  7783  005222                     
  7784                           ;C:/Users/bruno/OneDrive/Documentos/ProgramacaoEmbarcada/projeto_final.X/keypad.c: 89:  
      +                             TRISB &= 0x07;
  7785  005222  0E07               	movlw	7
  7786  005224  1693               	andwf	147,f,c	;volatile
  7787                           
  7788                           ;C:/Users/bruno/OneDrive/Documentos/ProgramacaoEmbarcada/projeto_final.X/keypad.c: 91:  
      +                             TRISD |= 0x0f;
  7789  005226  0E0F               	movlw	15
  7790  005228  1295               	iorwf	149,f,c	;volatile
  7791  00522A  0012               	return		;funcret
  7792  00522C                     __end_of_kpInit:
  7793                           	callstack 0
  7794                           
  7795 ;; *************** function _kpDebounce *****************
  7796 ;; Defined at:
  7797 ;;		line 39 in file "C:/Users/bruno/OneDrive/Documentos/ProgramacaoEmbarcada/projeto_final.X/keypad.c"
  7798 ;; Parameters:    Size  Location     Type
  7799 ;;		None
  7800 ;; Auto vars:     Size  Location     Type
  7801 ;;  k               2    6[COMRAM] int 
  7802 ;;  i               1    9[COMRAM] unsigned char 
  7803 ;;  j               1    8[COMRAM] unsigned char 
  7804 ;;  old_D           1    5[COMRAM] unsigned char 
  7805 ;; Return value:  Size  Location     Type
  7806 ;;                  1    wreg      void 
  7807 ;; Registers used:
  7808 ;;		wreg, status,2, status,0, prodl, prodh
  7809 ;; Tracked objects:
  7810 ;;		On entry : 0/0
  7811 ;;		On exit  : 0/0
  7812 ;;		Unchanged: 0/0
  7813 ;; Data sizes:     COMRAM   BANK0   BANK1   BANK2   BANK3   BANK4   BANK5
  7814 ;;      Params:         0       0       0       0       0       0       0
  7815 ;;      Locals:         5       0       0       0       0       0       0
  7816 ;;      Temps:          5       0       0       0       0       0       0
  7817 ;;      Totals:        10       0       0       0       0       0       0
  7818 ;;Total ram usage:       10 bytes
  7819 ;; Hardware stack levels used: 1
  7820 ;; This function calls:
  7821 ;;		Nothing
  7822 ;; This function is called by:
  7823 ;;		_main
  7824 ;;		_tocarAlarme
  7825 ;; This function uses a non-reentrant model
  7826 ;;
  7827                           
  7828                           	psect	text23
  7829  005C5C                     __ptext23:
  7830                           	callstack 0
  7831  005C5C                     _kpDebounce:
  7832                           	callstack 29
  7833  005C5C                     
  7834                           ;C:/Users/bruno/OneDrive/Documentos/ProgramacaoEmbarcada/projeto_final.X/keypad.c: 40:  
      +                             unsigned char i, j;;C:/Users/bruno/OneDrive/Documentos/ProgramacaoEmbarcada/projeto_f
      +                          inal.X/keypad.c: 41:     static unsigned char tempo;;C:/Users/bruno/OneDrive/Documentos/
      +                          ProgramacaoEmbarcada/projeto_final.X/keypad.c: 42:     static unsigned int valorNovo = 0
      +                          x0000;;C:/Users/bruno/OneDrive/Documentos/ProgramacaoEmbarcada/projeto_final.X/keypad.c:
      +                           43:     static unsigned int valorAntigo = 0x0000;;C:/Users/bruno/OneDrive/Documentos/Pr
      +                          ogramacaoEmbarcada/projeto_final.X/keypad.c: 46:     unsigned char old_D;
  7835  005C5C  CF83 F04F          	movff	3971,kpDebounce@old_D	;volatile
  7836  005C60                     
  7837                           ;C:/Users/bruno/OneDrive/Documentos/ProgramacaoEmbarcada/projeto_final.X/keypad.c: 51:  
      +                             TRISD |= 0x0f;
  7838  005C60  0E0F               	movlw	15
  7839  005C62  1295               	iorwf	149,f,c	;volatile
  7840  005C64                     
  7841                           ;C:/Users/bruno/OneDrive/Documentos/ProgramacaoEmbarcada/projeto_final.X/keypad.c: 53:  
      +                             for (i = 0; i < 3; i++) {
  7842  005C64  0E00               	movlw	0
  7843  005C66  6E53               	movwf	kpDebounce@i^0,c
  7844  005C68                     l3508:
  7845                           
  7846                           ;C:/Users/bruno/OneDrive/Documentos/ProgramacaoEmbarcada/projeto_final.X/keypad.c: 55:  
      +                                 TRISB &= 0xF8;
  7847  005C68  0EF8               	movlw	248
  7848  005C6A  1693               	andwf	147,f,c	;volatile
  7849                           
  7850                           ;C:/Users/bruno/OneDrive/Documentos/ProgramacaoEmbarcada/projeto_final.X/keypad.c: 57:  
      +                                 ((TRISB) |= (1<<(i)));
  7851  005C6C  C053  F04A         	movff	kpDebounce@i,??_kpDebounce
  7852  005C70  0E01               	movlw	1
  7853  005C72  6E4B               	movwf	(??_kpDebounce+1)^0,c
  7854  005C74  2A4A               	incf	??_kpDebounce^0,f,c
  7855  005C76  EF3F  F02E         	goto	u3044
  7856  005C7A                     u3045:
  7857  005C7A  90D8               	bcf	status,0,c
  7858  005C7C  364B               	rlcf	(??_kpDebounce+1)^0,f,c
  7859  005C7E                     u3044:
  7860  005C7E  2E4A               	decfsz	??_kpDebounce^0,f,c
  7861  005C80  EF3D  F02E         	goto	u3045
  7862  005C84  504B               	movf	(??_kpDebounce+1)^0,w,c
  7863  005C86  1293               	iorwf	147,f,c	;volatile
  7864                           
  7865                           ;C:/Users/bruno/OneDrive/Documentos/ProgramacaoEmbarcada/projeto_final.X/keypad.c: 59:  
      +                                 PORTB |= 0x07;
  7866  005C88  0E07               	movlw	7
  7867  005C8A  1281               	iorwf	129,f,c	;volatile
  7868                           
  7869                           ;C:/Users/bruno/OneDrive/Documentos/ProgramacaoEmbarcada/projeto_final.X/keypad.c: 60:  
      +                                 ((PORTB) &= ~(1<<(i)));
  7870  005C8C  C053  F04A         	movff	kpDebounce@i,??_kpDebounce
  7871  005C90  0E01               	movlw	1
  7872  005C92  6E4B               	movwf	(??_kpDebounce+1)^0,c
  7873  005C94  2A4A               	incf	??_kpDebounce^0,f,c
  7874  005C96  EF4F  F02E         	goto	u3054
  7875  005C9A                     u3055:
  7876  005C9A  90D8               	bcf	status,0,c
  7877  005C9C  364B               	rlcf	(??_kpDebounce+1)^0,f,c
  7878  005C9E                     u3054:
  7879  005C9E  2E4A               	decfsz	??_kpDebounce^0,f,c
  7880  005CA0  EF4D  F02E         	goto	u3055
  7881  005CA4  504B               	movf	(??_kpDebounce+1)^0,w,c
  7882  005CA6  0AFF               	xorlw	255
  7883  005CA8  1681               	andwf	129,f,c	;volatile
  7884  005CAA                     
  7885                           ;C:/Users/bruno/OneDrive/Documentos/ProgramacaoEmbarcada/projeto_final.X/keypad.c: 63:  
      +                                 for (int k = 0; k < 10; k++);
  7886  005CAA  0E00               	movlw	0
  7887  005CAC  6E51               	movwf	(kpDebounce@k+1)^0,c
  7888  005CAE  0E00               	movlw	0
  7889  005CB0  6E50               	movwf	kpDebounce@k^0,c
  7890  005CB2                     l3516:
  7891  005CB2  4A50               	infsnz	kpDebounce@k^0,f,c
  7892  005CB4  2A51               	incf	(kpDebounce@k+1)^0,f,c
  7893  005CB6  BE51               	btfsc	(kpDebounce@k+1)^0,7,c
  7894  005CB8  EF67  F02E         	goto	u3061
  7895  005CBC  5051               	movf	(kpDebounce@k+1)^0,w,c
  7896  005CBE  E109               	bnz	u3060
  7897  005CC0  0E0A               	movlw	10
  7898  005CC2  5C50               	subwf	kpDebounce@k^0,w,c
  7899  005CC4  A0D8               	btfss	status,0,c
  7900  005CC6  EF67  F02E         	goto	u3061
  7901  005CCA  EF69  F02E         	goto	u3060
  7902  005CCE                     u3061:
  7903  005CCE  EF59  F02E         	goto	l3516
  7904  005CD2                     u3060:
  7905  005CD2                     
  7906                           ;C:/Users/bruno/OneDrive/Documentos/ProgramacaoEmbarcada/projeto_final.X/keypad.c: 66:  
      +                                 for (j = 0; j < 4; j++) {
  7907  005CD2  0E00               	movlw	0
  7908  005CD4  6E52               	movwf	kpDebounce@j^0,c
  7909  005CD6                     l3526:
  7910                           
  7911                           ;C:/Users/bruno/OneDrive/Documentos/ProgramacaoEmbarcada/projeto_final.X/keypad.c: 67:  
      +                                     if (!((PORTD) & (1<<(j)))) {
  7912  005CD6  C052  F04A         	movff	kpDebounce@j,??_kpDebounce
  7913  005CDA  0E01               	movlw	1
  7914  005CDC  6E4B               	movwf	(??_kpDebounce+1)^0,c
  7915  005CDE  2A4A               	incf	??_kpDebounce^0,f,c
  7916  005CE0  EF74  F02E         	goto	u3074
  7917  005CE4                     u3075:
  7918  005CE4  90D8               	bcf	status,0,c
  7919  005CE6  364B               	rlcf	(??_kpDebounce+1)^0,f,c
  7920  005CE8                     u3074:
  7921  005CE8  2E4A               	decfsz	??_kpDebounce^0,f,c
  7922  005CEA  EF72  F02E         	goto	u3075
  7923  005CEE  504B               	movf	(??_kpDebounce+1)^0,w,c
  7924  005CF0  1483               	andwf	131,w,c	;volatile
  7925  005CF2  0900               	iorlw	0
  7926  005CF4  A4D8               	btfss	status,2,c
  7927  005CF6  EF7F  F02E         	goto	u3081
  7928  005CFA  EF81  F02E         	goto	u3080
  7929  005CFE                     u3081:
  7930  005CFE  EF99  F02E         	goto	l3530
  7931  005D02                     u3080:
  7932  005D02                     
  7933                           ;C:/Users/bruno/OneDrive/Documentos/ProgramacaoEmbarcada/projeto_final.X/keypad.c: 68:  
      +                                         ((valorNovo) |= (1<<((i * 4) + j)));
  7934  005D02  5053               	movf	kpDebounce@i^0,w,c
  7935  005D04  0D04               	mullw	4
  7936  005D06  50F3               	movf	243,w,c
  7937  005D08  2452               	addwf	kpDebounce@j^0,w,c
  7938  005D0A  6E4A               	movwf	??_kpDebounce^0,c
  7939  005D0C  0E01               	movlw	1
  7940  005D0E  6E4B               	movwf	(??_kpDebounce+1)^0,c
  7941  005D10  0E00               	movlw	0
  7942  005D12  6E4C               	movwf	(??_kpDebounce+2)^0,c
  7943  005D14  2A4A               	incf	??_kpDebounce^0,f,c
  7944  005D16  EF90  F02E         	goto	u3094
  7945  005D1A                     u3095:
  7946  005D1A  90D8               	bcf	status,0,c
  7947  005D1C  364B               	rlcf	(??_kpDebounce+1)^0,f,c
  7948  005D1E  364C               	rlcf	(??_kpDebounce+2)^0,f,c
  7949  005D20                     u3094:
  7950  005D20  2E4A               	decfsz	??_kpDebounce^0,f,c
  7951  005D22  EF8D  F02E         	goto	u3095
  7952  005D26  504B               	movf	(??_kpDebounce+1)^0,w,c
  7953  005D28  1245               	iorwf	kpDebounce@valorNovo^0,f,c
  7954  005D2A  504C               	movf	(??_kpDebounce+2)^0,w,c
  7955  005D2C  1246               	iorwf	(kpDebounce@valorNovo+1)^0,f,c
  7956                           
  7957                           ;C:/Users/bruno/OneDrive/Documentos/ProgramacaoEmbarcada/projeto_final.X/keypad.c: 69:  
      +                                     } else {
  7958  005D2E  EFB3  F02E         	goto	l3532
  7959  005D32                     l3530:
  7960                           
  7961                           ;C:/Users/bruno/OneDrive/Documentos/ProgramacaoEmbarcada/projeto_final.X/keypad.c: 70:  
      +                                         ((valorNovo) &= ~(1<<((i * 4) + j)));
  7962  005D32  5053               	movf	kpDebounce@i^0,w,c
  7963  005D34  0D04               	mullw	4
  7964  005D36  50F3               	movf	243,w,c
  7965  005D38  2452               	addwf	kpDebounce@j^0,w,c
  7966  005D3A  6E4A               	movwf	??_kpDebounce^0,c
  7967  005D3C  0E01               	movlw	1
  7968  005D3E  6E4B               	movwf	(??_kpDebounce+1)^0,c
  7969  005D40  0E00               	movlw	0
  7970  005D42  6E4C               	movwf	(??_kpDebounce+2)^0,c
  7971  005D44  2A4A               	incf	??_kpDebounce^0,f,c
  7972  005D46  EFA8  F02E         	goto	u3104
  7973  005D4A                     u3105:
  7974  005D4A  90D8               	bcf	status,0,c
  7975  005D4C  364B               	rlcf	(??_kpDebounce+1)^0,f,c
  7976  005D4E  364C               	rlcf	(??_kpDebounce+2)^0,f,c
  7977  005D50                     u3104:
  7978  005D50  2E4A               	decfsz	??_kpDebounce^0,f,c
  7979  005D52  EFA5  F02E         	goto	u3105
  7980  005D56  1C4B               	comf	(??_kpDebounce+1)^0,w,c
  7981  005D58  6E4D               	movwf	(??_kpDebounce+3)^0,c
  7982  005D5A  1C4C               	comf	(??_kpDebounce+2)^0,w,c
  7983  005D5C  6E4E               	movwf	(??_kpDebounce+4)^0,c
  7984  005D5E  504D               	movf	(??_kpDebounce+3)^0,w,c
  7985  005D60  1645               	andwf	kpDebounce@valorNovo^0,f,c
  7986  005D62  504E               	movf	(??_kpDebounce+4)^0,w,c
  7987  005D64  1646               	andwf	(kpDebounce@valorNovo+1)^0,f,c
  7988  005D66                     l3532:
  7989                           
  7990                           ;C:/Users/bruno/OneDrive/Documentos/ProgramacaoEmbarcada/projeto_final.X/keypad.c: 72:  
      +                                 }
  7991  005D66  2A52               	incf	kpDebounce@j^0,f,c
  7992  005D68  0E03               	movlw	3
  7993  005D6A  6452               	cpfsgt	kpDebounce@j^0,c
  7994  005D6C  EFBA  F02E         	goto	u3111
  7995  005D70  EFBC  F02E         	goto	u3110
  7996  005D74                     u3111:
  7997  005D74  EF6B  F02E         	goto	l3526
  7998  005D78                     u3110:
  7999  005D78                     
  8000                           ;C:/Users/bruno/OneDrive/Documentos/ProgramacaoEmbarcada/projeto_final.X/keypad.c: 73:  
      +                             }
  8001  005D78  2A53               	incf	kpDebounce@i^0,f,c
  8002  005D7A  0E02               	movlw	2
  8003  005D7C  6453               	cpfsgt	kpDebounce@i^0,c
  8004  005D7E  EFC3  F02E         	goto	u3121
  8005  005D82  EFC5  F02E         	goto	u3120
  8006  005D86                     u3121:
  8007  005D86  EF34  F02E         	goto	l3508
  8008  005D8A                     u3120:
  8009  005D8A                     
  8010                           ;C:/Users/bruno/OneDrive/Documentos/ProgramacaoEmbarcada/projeto_final.X/keypad.c: 74:  
      +                             if (valorAntigo == valorNovo) {
  8011  005D8A  5045               	movf	kpDebounce@valorNovo^0,w,c
  8012  005D8C  1843               	xorwf	kpDebounce@valorAntigo^0,w,c
  8013  005D8E  E107               	bnz	u3131
  8014  005D90  5046               	movf	(kpDebounce@valorNovo+1)^0,w,c
  8015  005D92  1844               	xorwf	(kpDebounce@valorAntigo+1)^0,w,c
  8016  005D94  A4D8               	btfss	status,2,c
  8017  005D96  EFCF  F02E         	goto	u3131
  8018  005D9A  EFD1  F02E         	goto	u3130
  8019  005D9E                     u3131:
  8020  005D9E  EFD4  F02E         	goto	l3544
  8021  005DA2                     u3130:
  8022  005DA2                     
  8023                           ;C:/Users/bruno/OneDrive/Documentos/ProgramacaoEmbarcada/projeto_final.X/keypad.c: 75:  
      +                                 tempo--;
  8024  005DA2  0649               	decf	kpDebounce@tempo^0,f,c
  8025                           
  8026                           ;C:/Users/bruno/OneDrive/Documentos/ProgramacaoEmbarcada/projeto_final.X/keypad.c: 76:  
      +                             } else {
  8027  005DA4  EFDA  F02E         	goto	l107
  8028  005DA8                     l3544:
  8029                           
  8030                           ;C:/Users/bruno/OneDrive/Documentos/ProgramacaoEmbarcada/projeto_final.X/keypad.c: 77:  
      +                                 tempo = 10;
  8031  005DA8  0E0A               	movlw	10
  8032  005DAA  6E49               	movwf	kpDebounce@tempo^0,c
  8033  005DAC                     
  8034                           ;C:/Users/bruno/OneDrive/Documentos/ProgramacaoEmbarcada/projeto_final.X/keypad.c: 78:  
      +                                 valorAntigo = valorNovo;
  8035  005DAC  C045  F043         	movff	kpDebounce@valorNovo,kpDebounce@valorAntigo
  8036  005DB0  C046  F044         	movff	kpDebounce@valorNovo+1,kpDebounce@valorAntigo+1
  8037  005DB4                     l107:
  8038                           
  8039                           ;C:/Users/bruno/OneDrive/Documentos/ProgramacaoEmbarcada/projeto_final.X/keypad.c: 80:  
      +                             if (tempo == 0) {
  8040  005DB4  5049               	movf	kpDebounce@tempo^0,w,c
  8041  005DB6  A4D8               	btfss	status,2,c
  8042  005DB8  EFE0  F02E         	goto	u3141
  8043  005DBC  EFE2  F02E         	goto	u3140
  8044  005DC0                     u3141:
  8045  005DC0  EFE6  F02E         	goto	l108
  8046  005DC4                     u3140:
  8047  005DC4                     
  8048                           ;C:/Users/bruno/OneDrive/Documentos/ProgramacaoEmbarcada/projeto_final.X/keypad.c: 81:  
      +                                 valor = valorAntigo;
  8049  005DC4  C043  F047         	movff	kpDebounce@valorAntigo,_valor
  8050  005DC8  C044  F048         	movff	kpDebounce@valorAntigo+1,_valor+1
  8051  005DCC                     l108:
  8052                           
  8053                           ;C:/Users/bruno/OneDrive/Documentos/ProgramacaoEmbarcada/projeto_final.X/keypad.c: 83:  
      +                             PORTD = old_D;
  8054  005DCC  C04F  FF83         	movff	kpDebounce@old_D,3971	;volatile
  8055  005DD0                     
  8056                           ;C:/Users/bruno/OneDrive/Documentos/ProgramacaoEmbarcada/projeto_final.X/keypad.c: 84:  
      +                             TRISD = 0x00;
  8057  005DD0  0E00               	movlw	0
  8058  005DD2  6E95               	movwf	149,c	;volatile
  8059  005DD4  0012               	return		;funcret
  8060  005DD6                     __end_of_kpDebounce:
  8061                           	callstack 0
  8062                           
  8063 ;; *************** function _atraso_ms *****************
  8064 ;; Defined at:
  8065 ;;		line 26 in file "C:/Users/bruno/OneDrive/Documentos/ProgramacaoEmbarcada/projeto_final.X/atraso.c"
  8066 ;; Parameters:    Size  Location     Type
  8067 ;;  valor           2    0[COMRAM] unsigned int 
  8068 ;; Auto vars:     Size  Location     Type
  8069 ;;  i               2    2[COMRAM] unsigned int 
  8070 ;;  k               1    5[COMRAM] volatile unsigned char 
  8071 ;;  j               1    4[COMRAM] volatile unsigned char 
  8072 ;; Return value:  Size  Location     Type
  8073 ;;                  1    wreg      void 
  8074 ;; Registers used:
  8075 ;;		wreg, status,2, status,0
  8076 ;; Tracked objects:
  8077 ;;		On entry : 0/0
  8078 ;;		On exit  : 0/0
  8079 ;;		Unchanged: 0/0
  8080 ;; Data sizes:     COMRAM   BANK0   BANK1   BANK2   BANK3   BANK4   BANK5
  8081 ;;      Params:         2       0       0       0       0       0       0
  8082 ;;      Locals:         4       0       0       0       0       0       0
  8083 ;;      Temps:          0       0       0       0       0       0       0
  8084 ;;      Totals:         6       0       0       0       0       0       0
  8085 ;;Total ram usage:        6 bytes
  8086 ;; Hardware stack levels used: 1
  8087 ;; This function calls:
  8088 ;;		Nothing
  8089 ;; This function is called by:
  8090 ;;		_tocarAlarme
  8091 ;;		_aciona_buzzer
  8092 ;; This function uses a non-reentrant model
  8093 ;;
  8094                           
  8095                           	psect	text24
  8096  0053FE                     __ptext24:
  8097                           	callstack 0
  8098  0053FE                     _atraso_ms:
  8099                           	callstack 29
  8100  0053FE                     
  8101                           ;C:/Users/bruno/OneDrive/Documentos/ProgramacaoEmbarcada/projeto_final.X/atraso.c: 27:  
      +                             unsigned int i;;C:/Users/bruno/OneDrive/Documentos/ProgramacaoEmbarcada/projeto_final
      +                          .X/atraso.c: 28:     volatile unsigned char j, k;;C:/Users/bruno/OneDrive/Documentos/Pro
      +                          gramacaoEmbarcada/projeto_final.X/atraso.c: 30:     for (i = 0; i < valor; i++) {
  8102  0053FE  0E00               	movlw	0
  8103  005400  6E4D               	movwf	(atraso_ms@i+1)^0,c
  8104  005402  0E00               	movlw	0
  8105  005404  6E4C               	movwf	atraso_ms@i^0,c
  8106  005406  EF25  F02A         	goto	l3578
  8107  00540A                     l3556:
  8108                           
  8109                           ;C:/Users/bruno/OneDrive/Documentos/ProgramacaoEmbarcada/projeto_final.X/atraso.c: 31:  
      +                                 for (j = 0; j < 41; j++) {
  8110  00540A  0E00               	movlw	0
  8111  00540C  6E4E               	movwf	atraso_ms@j^0,c	;volatile
  8112  00540E                     l3558:
  8113  00540E  0E28               	movlw	40
  8114  005410  644E               	cpfsgt	atraso_ms@j^0,c	;volatile
  8115  005412  EF0D  F02A         	goto	u3151
  8116  005416  EF0F  F02A         	goto	u3150
  8117  00541A                     u3151:
  8118  00541A  EF11  F02A         	goto	l3562
  8119  00541E                     u3150:
  8120  00541E  EF23  F02A         	goto	l3576
  8121  005422                     l3562:
  8122                           
  8123                           ;C:/Users/bruno/OneDrive/Documentos/ProgramacaoEmbarcada/projeto_final.X/atraso.c: 32:  
      +                                     for (k = 0; k < 3; k++);
  8124  005422  0E00               	movlw	0
  8125  005424  6E4F               	movwf	atraso_ms@k^0,c	;volatile
  8126  005426                     l3564:
  8127  005426  0E02               	movlw	2
  8128  005428  644F               	cpfsgt	atraso_ms@k^0,c	;volatile
  8129  00542A  EF19  F02A         	goto	u3161
  8130  00542E  EF1B  F02A         	goto	u3160
  8131  005432                     u3161:
  8132  005432  EF1D  F02A         	goto	l3568
  8133  005436                     u3160:
  8134  005436  EF20  F02A         	goto	l3572
  8135  00543A                     l3568:
  8136  00543A  2A4F               	incf	atraso_ms@k^0,f,c	;volatile
  8137  00543C  EF13  F02A         	goto	l3564
  8138  005440                     l3572:
  8139                           
  8140                           ;C:/Users/bruno/OneDrive/Documentos/ProgramacaoEmbarcada/projeto_final.X/atraso.c: 33:  
      +                                 }
  8141  005440  2A4E               	incf	atraso_ms@j^0,f,c	;volatile
  8142  005442  EF07  F02A         	goto	l3558
  8143  005446                     l3576:
  8144                           
  8145                           ;C:/Users/bruno/OneDrive/Documentos/ProgramacaoEmbarcada/projeto_final.X/atraso.c: 34:  
      +                             }
  8146  005446  4A4C               	infsnz	atraso_ms@i^0,f,c
  8147  005448  2A4D               	incf	(atraso_ms@i+1)^0,f,c
  8148  00544A                     l3578:
  8149  00544A  504A               	movf	atraso_ms@valor^0,w,c
  8150  00544C  5C4C               	subwf	atraso_ms@i^0,w,c
  8151  00544E  504B               	movf	(atraso_ms@valor+1)^0,w,c
  8152  005450  584D               	subwfb	(atraso_ms@i+1)^0,w,c
  8153  005452  A0D8               	btfss	status,0,c
  8154  005454  EF2E  F02A         	goto	u3171
  8155  005458  EF30  F02A         	goto	u3170
  8156  00545C                     u3171:
  8157  00545C  EF05  F02A         	goto	l3556
  8158  005460                     u3170:
  8159  005460  0012               	return		;funcret
  8160  005462                     __end_of_atraso_ms:
  8161                           	callstack 0
  8162                           
  8163 ;; *************** function ___awmod *****************
  8164 ;; Defined at:
  8165 ;;		line 7 in file "C:\Program Files\Microchip\xc8\v2.32\pic\sources\c99\common\awmod.c"
  8166 ;; Parameters:    Size  Location     Type
  8167 ;;  dividend        2    0[COMRAM] int 
  8168 ;;  divisor         2    2[COMRAM] int 
  8169 ;; Auto vars:     Size  Location     Type
  8170 ;;  sign            1    5[COMRAM] unsigned char 
  8171 ;;  counter         1    4[COMRAM] unsigned char 
  8172 ;; Return value:  Size  Location     Type
  8173 ;;                  2    0[COMRAM] int 
  8174 ;; Registers used:
  8175 ;;		wreg, status,2, status,0
  8176 ;; Tracked objects:
  8177 ;;		On entry : 0/0
  8178 ;;		On exit  : 0/0
  8179 ;;		Unchanged: 0/0
  8180 ;; Data sizes:     COMRAM   BANK0   BANK1   BANK2   BANK3   BANK4   BANK5
  8181 ;;      Params:         4       0       0       0       0       0       0
  8182 ;;      Locals:         2       0       0       0       0       0       0
  8183 ;;      Temps:          0       0       0       0       0       0       0
  8184 ;;      Totals:         6       0       0       0       0       0       0
  8185 ;;Total ram usage:        6 bytes
  8186 ;; Hardware stack levels used: 1
  8187 ;; This function calls:
  8188 ;;		Nothing
  8189 ;; This function is called by:
  8190 ;;		_main
  8191 ;;		_tocarAlarme
  8192 ;; This function uses a non-reentrant model
  8193 ;;
  8194                           
  8195                           	psect	text25
  8196  005850                     __ptext25:
  8197                           	callstack 0
  8198  005850                     ___awmod:
  8199                           	callstack 29
  8200  005850  0E00               	movlw	0
  8201  005852  6E4F               	movwf	___awmod@sign^0,c
  8202  005854  BE4B               	btfsc	(___awmod@dividend+1)^0,7,c
  8203  005856  EF31  F02C         	goto	u3240
  8204  00585A  EF2F  F02C         	goto	u3241
  8205  00585E                     u3241:
  8206  00585E  EF37  F02C         	goto	l3740
  8207  005862                     u3240:
  8208  005862  6C4A               	negf	___awmod@dividend^0,c
  8209  005864  1E4B               	comf	(___awmod@dividend+1)^0,f,c
  8210  005866  B0D8               	btfsc	status,0,c
  8211  005868  2A4B               	incf	(___awmod@dividend+1)^0,f,c
  8212  00586A  0E01               	movlw	1
  8213  00586C  6E4F               	movwf	___awmod@sign^0,c
  8214  00586E                     l3740:
  8215  00586E  BE4D               	btfsc	(___awmod@divisor+1)^0,7,c
  8216  005870  EF3E  F02C         	goto	u3250
  8217  005874  EF3C  F02C         	goto	u3251
  8218  005878                     u3251:
  8219  005878  EF42  F02C         	goto	l3744
  8220  00587C                     u3250:
  8221  00587C  6C4C               	negf	___awmod@divisor^0,c
  8222  00587E  1E4D               	comf	(___awmod@divisor+1)^0,f,c
  8223  005880  B0D8               	btfsc	status,0,c
  8224  005882  2A4D               	incf	(___awmod@divisor+1)^0,f,c
  8225  005884                     l3744:
  8226  005884  504C               	movf	___awmod@divisor^0,w,c
  8227  005886  104D               	iorwf	(___awmod@divisor+1)^0,w,c
  8228  005888  B4D8               	btfsc	status,2,c
  8229  00588A  EF49  F02C         	goto	u3261
  8230  00588E  EF4B  F02C         	goto	u3260
  8231  005892                     u3261:
  8232  005892  EF6F  F02C         	goto	l3760
  8233  005896                     u3260:
  8234  005896  0E01               	movlw	1
  8235  005898  6E4E               	movwf	___awmod@counter^0,c
  8236  00589A  EF53  F02C         	goto	l3750
  8237  00589E                     l3748:
  8238  00589E  90D8               	bcf	status,0,c
  8239  0058A0  364C               	rlcf	___awmod@divisor^0,f,c
  8240  0058A2  364D               	rlcf	(___awmod@divisor+1)^0,f,c
  8241  0058A4  2A4E               	incf	___awmod@counter^0,f,c
  8242  0058A6                     l3750:
  8243  0058A6  AE4D               	btfss	(___awmod@divisor+1)^0,7,c
  8244  0058A8  EF58  F02C         	goto	u3271
  8245  0058AC  EF5A  F02C         	goto	u3270
  8246  0058B0                     u3271:
  8247  0058B0  EF4F  F02C         	goto	l3748
  8248  0058B4                     u3270:
  8249  0058B4                     l3752:
  8250  0058B4  504C               	movf	___awmod@divisor^0,w,c
  8251  0058B6  5C4A               	subwf	___awmod@dividend^0,w,c
  8252  0058B8  504D               	movf	(___awmod@divisor+1)^0,w,c
  8253  0058BA  584B               	subwfb	(___awmod@dividend+1)^0,w,c
  8254  0058BC  A0D8               	btfss	status,0,c
  8255  0058BE  EF63  F02C         	goto	u3281
  8256  0058C2  EF65  F02C         	goto	u3280
  8257  0058C6                     u3281:
  8258  0058C6  EF69  F02C         	goto	l3756
  8259  0058CA                     u3280:
  8260  0058CA  504C               	movf	___awmod@divisor^0,w,c
  8261  0058CC  5E4A               	subwf	___awmod@dividend^0,f,c
  8262  0058CE  504D               	movf	(___awmod@divisor+1)^0,w,c
  8263  0058D0  5A4B               	subwfb	(___awmod@dividend+1)^0,f,c
  8264  0058D2                     l3756:
  8265  0058D2  90D8               	bcf	status,0,c
  8266  0058D4  324D               	rrcf	(___awmod@divisor+1)^0,f,c
  8267  0058D6  324C               	rrcf	___awmod@divisor^0,f,c
  8268  0058D8  2E4E               	decfsz	___awmod@counter^0,f,c
  8269  0058DA  EF5A  F02C         	goto	l3752
  8270  0058DE                     l3760:
  8271  0058DE  504F               	movf	___awmod@sign^0,w,c
  8272  0058E0  B4D8               	btfsc	status,2,c
  8273  0058E2  EF75  F02C         	goto	u3291
  8274  0058E6  EF77  F02C         	goto	u3290
  8275  0058EA                     u3291:
  8276  0058EA  EF7B  F02C         	goto	l3764
  8277  0058EE                     u3290:
  8278  0058EE  6C4A               	negf	___awmod@dividend^0,c
  8279  0058F0  1E4B               	comf	(___awmod@dividend+1)^0,f,c
  8280  0058F2  B0D8               	btfsc	status,0,c
  8281  0058F4  2A4B               	incf	(___awmod@dividend+1)^0,f,c
  8282  0058F6                     l3764:
  8283  0058F6  C04A  F04A         	movff	___awmod@dividend,?___awmod
  8284  0058FA  C04B  F04B         	movff	___awmod@dividend+1,?___awmod+1
  8285  0058FE  0012               	return		;funcret
  8286  005900                     __end_of___awmod:
  8287                           	callstack 0
  8288                           
  8289 ;; *************** function ___awdiv *****************
  8290 ;; Defined at:
  8291 ;;		line 7 in file "C:\Program Files\Microchip\xc8\v2.32\pic\sources\c99\common\awdiv.c"
  8292 ;; Parameters:    Size  Location     Type
  8293 ;;  dividend        2    0[COMRAM] int 
  8294 ;;  divisor         2    2[COMRAM] int 
  8295 ;; Auto vars:     Size  Location     Type
  8296 ;;  quotient        2    6[COMRAM] int 
  8297 ;;  sign            1    5[COMRAM] unsigned char 
  8298 ;;  counter         1    4[COMRAM] unsigned char 
  8299 ;; Return value:  Size  Location     Type
  8300 ;;                  2    0[COMRAM] int 
  8301 ;; Registers used:
  8302 ;;		wreg, status,2, status,0
  8303 ;; Tracked objects:
  8304 ;;		On entry : 0/0
  8305 ;;		On exit  : 0/0
  8306 ;;		Unchanged: 0/0
  8307 ;; Data sizes:     COMRAM   BANK0   BANK1   BANK2   BANK3   BANK4   BANK5
  8308 ;;      Params:         4       0       0       0       0       0       0
  8309 ;;      Locals:         4       0       0       0       0       0       0
  8310 ;;      Temps:          0       0       0       0       0       0       0
  8311 ;;      Totals:         8       0       0       0       0       0       0
  8312 ;;Total ram usage:        8 bytes
  8313 ;; Hardware stack levels used: 1
  8314 ;; This function calls:
  8315 ;;		Nothing
  8316 ;; This function is called by:
  8317 ;;		_main
  8318 ;;		_tocarAlarme
  8319 ;; This function uses a non-reentrant model
  8320 ;;
  8321                           
  8322                           	psect	text26
  8323  005900                     __ptext26:
  8324                           	callstack 0
  8325  005900                     ___awdiv:
  8326                           	callstack 29
  8327  005900  0E00               	movlw	0
  8328  005902  6E4F               	movwf	___awdiv@sign^0,c
  8329  005904  BE4D               	btfsc	(___awdiv@divisor+1)^0,7,c
  8330  005906  EF89  F02C         	goto	u3180
  8331  00590A  EF87  F02C         	goto	u3181
  8332  00590E                     u3181:
  8333  00590E  EF8F  F02C         	goto	l3696
  8334  005912                     u3180:
  8335  005912  6C4C               	negf	___awdiv@divisor^0,c
  8336  005914  1E4D               	comf	(___awdiv@divisor+1)^0,f,c
  8337  005916  B0D8               	btfsc	status,0,c
  8338  005918  2A4D               	incf	(___awdiv@divisor+1)^0,f,c
  8339  00591A  0E01               	movlw	1
  8340  00591C  6E4F               	movwf	___awdiv@sign^0,c
  8341  00591E                     l3696:
  8342  00591E  BE4B               	btfsc	(___awdiv@dividend+1)^0,7,c
  8343  005920  EF96  F02C         	goto	u3190
  8344  005924  EF94  F02C         	goto	u3191
  8345  005928                     u3191:
  8346  005928  EF9C  F02C         	goto	l3702
  8347  00592C                     u3190:
  8348  00592C  6C4A               	negf	___awdiv@dividend^0,c
  8349  00592E  1E4B               	comf	(___awdiv@dividend+1)^0,f,c
  8350  005930  B0D8               	btfsc	status,0,c
  8351  005932  2A4B               	incf	(___awdiv@dividend+1)^0,f,c
  8352  005934  0E01               	movlw	1
  8353  005936  1A4F               	xorwf	___awdiv@sign^0,f,c
  8354  005938                     l3702:
  8355  005938  0E00               	movlw	0
  8356  00593A  6E51               	movwf	(___awdiv@quotient+1)^0,c
  8357  00593C  0E00               	movlw	0
  8358  00593E  6E50               	movwf	___awdiv@quotient^0,c
  8359  005940  504C               	movf	___awdiv@divisor^0,w,c
  8360  005942  104D               	iorwf	(___awdiv@divisor+1)^0,w,c
  8361  005944  B4D8               	btfsc	status,2,c
  8362  005946  EFA7  F02C         	goto	u3201
  8363  00594A  EFA9  F02C         	goto	u3200
  8364  00594E                     u3201:
  8365  00594E  EFD1  F02C         	goto	l3724
  8366  005952                     u3200:
  8367  005952  0E01               	movlw	1
  8368  005954  6E4E               	movwf	___awdiv@counter^0,c
  8369  005956  EFB1  F02C         	goto	l3710
  8370  00595A                     l3708:
  8371  00595A  90D8               	bcf	status,0,c
  8372  00595C  364C               	rlcf	___awdiv@divisor^0,f,c
  8373  00595E  364D               	rlcf	(___awdiv@divisor+1)^0,f,c
  8374  005960  2A4E               	incf	___awdiv@counter^0,f,c
  8375  005962                     l3710:
  8376  005962  AE4D               	btfss	(___awdiv@divisor+1)^0,7,c
  8377  005964  EFB6  F02C         	goto	u3211
  8378  005968  EFB8  F02C         	goto	u3210
  8379  00596C                     u3211:
  8380  00596C  EFAD  F02C         	goto	l3708
  8381  005970                     u3210:
  8382  005970                     l3712:
  8383  005970  90D8               	bcf	status,0,c
  8384  005972  3650               	rlcf	___awdiv@quotient^0,f,c
  8385  005974  3651               	rlcf	(___awdiv@quotient+1)^0,f,c
  8386  005976  504C               	movf	___awdiv@divisor^0,w,c
  8387  005978  5C4A               	subwf	___awdiv@dividend^0,w,c
  8388  00597A  504D               	movf	(___awdiv@divisor+1)^0,w,c
  8389  00597C  584B               	subwfb	(___awdiv@dividend+1)^0,w,c
  8390  00597E  A0D8               	btfss	status,0,c
  8391  005980  EFC4  F02C         	goto	u3221
  8392  005984  EFC6  F02C         	goto	u3220
  8393  005988                     u3221:
  8394  005988  EFCB  F02C         	goto	l3720
  8395  00598C                     u3220:
  8396  00598C  504C               	movf	___awdiv@divisor^0,w,c
  8397  00598E  5E4A               	subwf	___awdiv@dividend^0,f,c
  8398  005990  504D               	movf	(___awdiv@divisor+1)^0,w,c
  8399  005992  5A4B               	subwfb	(___awdiv@dividend+1)^0,f,c
  8400  005994  8050               	bsf	___awdiv@quotient^0,0,c
  8401  005996                     l3720:
  8402  005996  90D8               	bcf	status,0,c
  8403  005998  324D               	rrcf	(___awdiv@divisor+1)^0,f,c
  8404  00599A  324C               	rrcf	___awdiv@divisor^0,f,c
  8405  00599C  2E4E               	decfsz	___awdiv@counter^0,f,c
  8406  00599E  EFB8  F02C         	goto	l3712
  8407  0059A2                     l3724:
  8408  0059A2  504F               	movf	___awdiv@sign^0,w,c
  8409  0059A4  B4D8               	btfsc	status,2,c
  8410  0059A6  EFD7  F02C         	goto	u3231
  8411  0059AA  EFD9  F02C         	goto	u3230
  8412  0059AE                     u3231:
  8413  0059AE  EFDD  F02C         	goto	l3728
  8414  0059B2                     u3230:
  8415  0059B2  6C50               	negf	___awdiv@quotient^0,c
  8416  0059B4  1E51               	comf	(___awdiv@quotient+1)^0,f,c
  8417  0059B6  B0D8               	btfsc	status,0,c
  8418  0059B8  2A51               	incf	(___awdiv@quotient+1)^0,f,c
  8419  0059BA                     l3728:
  8420  0059BA  C050  F04A         	movff	___awdiv@quotient,?___awdiv
  8421  0059BE  C051  F04B         	movff	___awdiv@quotient+1,?___awdiv+1
  8422  0059C2  0012               	return		;funcret
  8423  0059C4                     __end_of___awdiv:
  8424                           	callstack 0
  8425                           
  8426 ;; *************** function ___llmod *****************
  8427 ;; Defined at:
  8428 ;;		line 7 in file "C:\Program Files\Microchip\xc8\v2.32\pic\sources\c99\common\llmod.c"
  8429 ;; Parameters:    Size  Location     Type
  8430 ;;  dividend        4    0[COMRAM] unsigned long 
  8431 ;;  divisor         4    4[COMRAM] unsigned long 
  8432 ;; Auto vars:     Size  Location     Type
  8433 ;;  counter         1    8[COMRAM] unsigned char 
  8434 ;; Return value:  Size  Location     Type
  8435 ;;                  4    0[COMRAM] unsigned long 
  8436 ;; Registers used:
  8437 ;;		wreg, status,2, status,0
  8438 ;; Tracked objects:
  8439 ;;		On entry : 0/0
  8440 ;;		On exit  : 0/0
  8441 ;;		Unchanged: 0/0
  8442 ;; Data sizes:     COMRAM   BANK0   BANK1   BANK2   BANK3   BANK4   BANK5
  8443 ;;      Params:         8       0       0       0       0       0       0
  8444 ;;      Locals:         1       0       0       0       0       0       0
  8445 ;;      Temps:          0       0       0       0       0       0       0
  8446 ;;      Totals:         9       0       0       0       0       0       0
  8447 ;;Total ram usage:        9 bytes
  8448 ;; Hardware stack levels used: 1
  8449 ;; This function calls:
  8450 ;;		Nothing
  8451 ;; This function is called by:
  8452 ;;		_main
  8453 ;; This function uses a non-reentrant model
  8454 ;;
  8455                           
  8456                           	psect	text27
  8457  00572A                     __ptext27:
  8458                           	callstack 0
  8459  00572A                     ___llmod:
  8460                           	callstack 30
  8461  00572A  504E               	movf	___llmod@divisor^0,w,c
  8462  00572C  104F               	iorwf	(___llmod@divisor+1)^0,w,c
  8463  00572E  1050               	iorwf	(___llmod@divisor+2)^0,w,c
  8464  005730  1051               	iorwf	(___llmod@divisor+3)^0,w,c
  8465  005732  B4D8               	btfsc	status,2,c
  8466  005734  EF9E  F02B         	goto	u3741
  8467  005738  EFA0  F02B         	goto	u3740
  8468  00573C                     u3741:
  8469  00573C  EFD0  F02B         	goto	l1039
  8470  005740                     u3740:
  8471  005740  0E01               	movlw	1
  8472  005742  6E52               	movwf	___llmod@counter^0,c
  8473  005744  EFAA  F02B         	goto	l4194
  8474  005748                     l4192:
  8475  005748  90D8               	bcf	status,0,c
  8476  00574A  364E               	rlcf	___llmod@divisor^0,f,c
  8477  00574C  364F               	rlcf	(___llmod@divisor+1)^0,f,c
  8478  00574E  3650               	rlcf	(___llmod@divisor+2)^0,f,c
  8479  005750  3651               	rlcf	(___llmod@divisor+3)^0,f,c
  8480  005752  2A52               	incf	___llmod@counter^0,f,c
  8481  005754                     l4194:
  8482  005754  AE51               	btfss	(___llmod@divisor+3)^0,7,c
  8483  005756  EFAF  F02B         	goto	u3751
  8484  00575A  EFB1  F02B         	goto	u3750
  8485  00575E                     u3751:
  8486  00575E  EFA4  F02B         	goto	l4192
  8487  005762                     u3750:
  8488  005762                     l4196:
  8489  005762  504E               	movf	___llmod@divisor^0,w,c
  8490  005764  5C4A               	subwf	___llmod@dividend^0,w,c
  8491  005766  504F               	movf	(___llmod@divisor+1)^0,w,c
  8492  005768  584B               	subwfb	(___llmod@dividend+1)^0,w,c
  8493  00576A  5050               	movf	(___llmod@divisor+2)^0,w,c
  8494  00576C  584C               	subwfb	(___llmod@dividend+2)^0,w,c
  8495  00576E  5051               	movf	(___llmod@divisor+3)^0,w,c
  8496  005770  584D               	subwfb	(___llmod@dividend+3)^0,w,c
  8497  005772  A0D8               	btfss	status,0,c
  8498  005774  EFBE  F02B         	goto	u3761
  8499  005778  EFC0  F02B         	goto	u3760
  8500  00577C                     u3761:
  8501  00577C  EFC8  F02B         	goto	l4200
  8502  005780                     u3760:
  8503  005780  504E               	movf	___llmod@divisor^0,w,c
  8504  005782  5E4A               	subwf	___llmod@dividend^0,f,c
  8505  005784  504F               	movf	(___llmod@divisor+1)^0,w,c
  8506  005786  5A4B               	subwfb	(___llmod@dividend+1)^0,f,c
  8507  005788  5050               	movf	(___llmod@divisor+2)^0,w,c
  8508  00578A  5A4C               	subwfb	(___llmod@dividend+2)^0,f,c
  8509  00578C  5051               	movf	(___llmod@divisor+3)^0,w,c
  8510  00578E  5A4D               	subwfb	(___llmod@dividend+3)^0,f,c
  8511  005790                     l4200:
  8512  005790  90D8               	bcf	status,0,c
  8513  005792  3251               	rrcf	(___llmod@divisor+3)^0,f,c
  8514  005794  3250               	rrcf	(___llmod@divisor+2)^0,f,c
  8515  005796  324F               	rrcf	(___llmod@divisor+1)^0,f,c
  8516  005798  324E               	rrcf	___llmod@divisor^0,f,c
  8517  00579A  2E52               	decfsz	___llmod@counter^0,f,c
  8518  00579C  EFB1  F02B         	goto	l4196
  8519  0057A0                     l1039:
  8520  0057A0  C04A  F04A         	movff	___llmod@dividend,?___llmod
  8521  0057A4  C04B  F04B         	movff	___llmod@dividend+1,?___llmod+1
  8522  0057A8  C04C  F04C         	movff	___llmod@dividend+2,?___llmod+2
  8523  0057AC  C04D  F04D         	movff	___llmod@dividend+3,?___llmod+3
  8524  0057B0  0012               	return		;funcret
  8525  0057B2                     __end_of___llmod:
  8526                           	callstack 0
  8527  0000                     
  8528                           	psect	rparam
  8529  0000                     
  8530                           	psect	idloc
  8531                           
  8532                           ;Config register IDLOC0 @ 0x200000
  8533                           ;	unspecified, using default values
  8534  200000                     	org	2097152
  8535  200000  FF                 	db	255
  8536                           
  8537                           ;Config register IDLOC1 @ 0x200001
  8538                           ;	unspecified, using default values
  8539  200001                     	org	2097153
  8540  200001  FF                 	db	255
  8541                           
  8542                           ;Config register IDLOC2 @ 0x200002
  8543                           ;	unspecified, using default values
  8544  200002                     	org	2097154
  8545  200002  FF                 	db	255
  8546                           
  8547                           ;Config register IDLOC3 @ 0x200003
  8548                           ;	unspecified, using default values
  8549  200003                     	org	2097155
  8550  200003  FF                 	db	255
  8551                           
  8552                           ;Config register IDLOC4 @ 0x200004
  8553                           ;	unspecified, using default values
  8554  200004                     	org	2097156
  8555  200004  FF                 	db	255
  8556                           
  8557                           ;Config register IDLOC5 @ 0x200005
  8558                           ;	unspecified, using default values
  8559  200005                     	org	2097157
  8560  200005  FF                 	db	255
  8561                           
  8562                           ;Config register IDLOC6 @ 0x200006
  8563                           ;	unspecified, using default values
  8564  200006                     	org	2097158
  8565  200006  FF                 	db	255
  8566                           
  8567                           ;Config register IDLOC7 @ 0x200007
  8568                           ;	unspecified, using default values
  8569  200007                     	org	2097159
  8570  200007  FF                 	db	255
  8571                           
  8572                           	psect	config
  8573                           
  8574                           ; Padding undefined space
  8575  300000                     	org	3145728
  8576  300000  FF                 	db	255
  8577                           
  8578                           ;Config register CONFIG1H @ 0x300001
  8579                           ;	Oscillator Selection bits
  8580                           ;	OSC = HS, HS oscillator
  8581                           ;	Fail-Safe Clock Monitor Enable bit
  8582                           ;	FCMEN = OFF, Fail-Safe Clock Monitor disabled
  8583                           ;	Internal/External Oscillator Switchover bit
  8584                           ;	IESO = OFF, Oscillator Switchover mode disabled
  8585  300001                     	org	3145729
  8586  300001  02                 	db	2
  8587                           
  8588                           ;Config register CONFIG2L @ 0x300002
  8589                           ;	Power-up Timer Enable bit
  8590                           ;	PWRT = OFF, PWRT disabled
  8591                           ;	Brown-out Reset Enable bits
  8592                           ;	BOREN = OFF, Brown-out Reset disabled in hardware and software
  8593                           ;	Brown Out Reset Voltage bits
  8594                           ;	BORV = 0x2E, user specified literal
  8595  300002                     	org	3145730
  8596  300002  71                 	db	369
  8597                           
  8598                           ;Config register CONFIG2H @ 0x300003
  8599                           ;	Watchdog Timer Enable bit
  8600                           ;	WDT = OFF, WDT disabled (control is placed on the SWDTEN bit)
  8601                           ;	Watchdog Timer Postscale Select bits
  8602                           ;	WDTPS = 1, 1:1
  8603  300003                     	org	3145731
  8604  300003  00                 	db	0
  8605                           
  8606                           ; Padding undefined space
  8607  300004                     	org	3145732
  8608  300004  FF                 	db	255
  8609                           
  8610                           ;Config register CONFIG3H @ 0x300005
  8611                           ;	CCP2 MUX bit
  8612                           ;	CCP2MX = PORTC, CCP2 input/output is multiplexed with RC1
  8613                           ;	PORTB A/D Enable bit
  8614                           ;	PBADEN = ON, PORTB<4:0> pins are configured as analog input channels on Reset
  8615                           ;	Low-Power Timer1 Oscillator Enable bit
  8616                           ;	LPT1OSC = OFF, Timer1 configured for higher power operation
  8617                           ;	MCLR Pin Enable bit
  8618                           ;	MCLRE = ON, MCLR pin enabled; RE3 input pin disabled
  8619  300005                     	org	3145733
  8620  300005  83                 	db	131
  8621                           
  8622                           ;Config register CONFIG4L @ 0x300006
  8623                           ;	Stack Full/Underflow Reset Enable bit
  8624                           ;	STVREN = OFF, Stack full/underflow will not cause Reset
  8625                           ;	Single-Supply ICSP Enable bit
  8626                           ;	LVP = OFF, Single-Supply ICSP disabled
  8627                           ;	Extended Instruction Set Enable bit
  8628                           ;	XINST = OFF, Instruction set extension and Indexed Addressing mode disabled (Legacy mo
      +                          de)
  8629                           ;	Background Debugger Enable bit
  8630                           ;	DEBUG = OFF, Background debugger disabled, RB6 and RB7 configured as general purpose I
      +                          /O pins
  8631  300006                     	org	3145734
  8632  300006  80                 	db	128
  8633                           
  8634                           ; Padding undefined space
  8635  300007                     	org	3145735
  8636  300007  FF                 	db	255
  8637                           
  8638                           ;Config register CONFIG5L @ 0x300008
  8639                           ;	Code Protection bit
  8640                           ;	CP0 = OFF, Block 0 (000800-001FFFh) not code-protected
  8641                           ;	Code Protection bit
  8642                           ;	CP1 = OFF, Block 1 (002000-003FFFh) not code-protected
  8643                           ;	Code Protection bit
  8644                           ;	CP2 = OFF, Block 2 (004000-005FFFh) not code-protected
  8645                           ;	Code Protection bit
  8646                           ;	CP3 = OFF, Block 3 (006000-007FFFh) not code-protected
  8647  300008                     	org	3145736
  8648  300008  0F                 	db	15
  8649                           
  8650                           ;Config register CONFIG5H @ 0x300009
  8651                           ;	Boot Block Code Protection bit
  8652                           ;	CPB = OFF, Boot block (000000-0007FFh) not code-protected
  8653                           ;	Data EEPROM Code Protection bit
  8654                           ;	CPD = OFF, Data EEPROM not code-protected
  8655  300009                     	org	3145737
  8656  300009  C0                 	db	192
  8657                           
  8658                           ;Config register CONFIG6L @ 0x30000A
  8659                           ;	Write Protection bit
  8660                           ;	WRT0 = OFF, Block 0 (000800-001FFFh) not write-protected
  8661                           ;	Write Protection bit
  8662                           ;	WRT1 = OFF, Block 1 (002000-003FFFh) not write-protected
  8663                           ;	Write Protection bit
  8664                           ;	WRT2 = OFF, Block 2 (004000-005FFFh) not write-protected
  8665                           ;	Write Protection bit
  8666                           ;	WRT3 = OFF, Block 3 (006000-007FFFh) not write-protected
  8667  30000A                     	org	3145738
  8668  30000A  0F                 	db	15
  8669                           
  8670                           ;Config register CONFIG6H @ 0x30000B
  8671                           ;	Configuration Register Write Protection bit
  8672                           ;	WRTC = OFF, Configuration registers (300000-3000FFh) not write-protected
  8673                           ;	Boot Block Write Protection bit
  8674                           ;	WRTB = OFF, Boot block (000000-0007FFh) not write-protected
  8675                           ;	Data EEPROM Write Protection bit
  8676                           ;	WRTD = OFF, Data EEPROM not write-protected
  8677  30000B                     	org	3145739
  8678  30000B  E0                 	db	224
  8679                           
  8680                           ;Config register CONFIG7L @ 0x30000C
  8681                           ;	Table Read Protection bit
  8682                           ;	EBTR0 = OFF, Block 0 (000800-001FFFh) not protected from table reads executed in other
      +                           blocks
  8683                           ;	Table Read Protection bit
  8684                           ;	EBTR1 = OFF, Block 1 (002000-003FFFh) not protected from table reads executed in other
      +                           blocks
  8685                           ;	Table Read Protection bit
  8686                           ;	EBTR2 = OFF, Block 2 (004000-005FFFh) not protected from table reads executed in other
      +                           blocks
  8687                           ;	Table Read Protection bit
  8688                           ;	EBTR3 = OFF, Block 3 (006000-007FFFh) not protected from table reads executed in other
      +                           blocks
  8689  30000C                     	org	3145740
  8690  30000C  0F                 	db	15
  8691                           
  8692                           ;Config register CONFIG7H @ 0x30000D
  8693                           ;	Boot Block Table Read Protection bit
  8694                           ;	EBTRB = OFF, Boot block (000000-0007FFh) not protected from table reads executed in ot
      +                          her blocks
  8695  30000D                     	org	3145741
  8696  30000D  40                 	db	64
  8697                           tosu	equ	0xFFF
  8698                           tosh	equ	0xFFE
  8699                           tosl	equ	0xFFD
  8700                           stkptr	equ	0xFFC
  8701                           pclatu	equ	0xFFB
  8702                           pclath	equ	0xFFA
  8703                           pcl	equ	0xFF9
  8704                           tblptru	equ	0xFF8
  8705                           tblptrh	equ	0xFF7
  8706                           tblptrl	equ	0xFF6
  8707                           tablat	equ	0xFF5
  8708                           prodh	equ	0xFF4
  8709                           prodl	equ	0xFF3
  8710                           indf0	equ	0xFEF
  8711                           postinc0	equ	0xFEE
  8712                           postdec0	equ	0xFED
  8713                           preinc0	equ	0xFEC
  8714                           plusw0	equ	0xFEB
  8715                           fsr0h	equ	0xFEA
  8716                           fsr0l	equ	0xFE9
  8717                           wreg	equ	0xFE8
  8718                           indf1	equ	0xFE7
  8719                           postinc1	equ	0xFE6
  8720                           postdec1	equ	0xFE5
  8721                           preinc1	equ	0xFE4
  8722                           plusw1	equ	0xFE3
  8723                           fsr1h	equ	0xFE2
  8724                           fsr1l	equ	0xFE1
  8725                           bsr	equ	0xFE0
  8726                           indf2	equ	0xFDF
  8727                           postinc2	equ	0xFDE
  8728                           postdec2	equ	0xFDD
  8729                           preinc2	equ	0xFDC
  8730                           plusw2	equ	0xFDB
  8731                           fsr2h	equ	0xFDA
  8732                           fsr2l	equ	0xFD9
  8733                           status	equ	0xFD8

Data Sizes:
    Strings     0
    Constant    0
    Data        580
    BSS         89
    Persistent  0
    Stack       0

Auto Spaces:
    Space          Size  Autos    Used
    COMRAM          127     26     119
    BANK0           128      0     128
    BANK1           256      0     208
    BANK2           256      0     240
    BANK3           256      0       0
    BANK4           256      0       0
    BANK5           256      0       0

Pointer List with Targets:

    None.

Critical Paths under _main in COMRAM

    _main->_tocarAlarme
    _tocarAlarme->_pwmSet1
    _rtc_r->_i2c_rb
    _i2c_wb->_delay
    _i2c_stop->_delay
    _i2c_start->_delay
    _i2c_rb->_delay
    _pwmSet1->___lwdiv
    _lcdInit->_lcdCommand
    _lcdCommand->_digitalWrite
    _Delay2ms->_Delay40us
    _lcdData->_digitalWrite

Critical Paths under _main in BANK0

    None.

Critical Paths under _main in BANK1

    None.

Critical Paths under _main in BANK2

    None.

Critical Paths under _main in BANK3

    None.

Critical Paths under _main in BANK4

    None.

Critical Paths under _main in BANK5

    None.

Call Graph Tables:

 ---------------------------------------------------------------------------------
 (Depth) Function   	        Calls       Base Space   Used Autos Params    Refs
 ---------------------------------------------------------------------------------
 (0) _main                                                 2     2      0   27364
                                             24 COMRAM     2     2      0
                            ___awdiv
                            ___awmod
                            ___llmod
                         _kpDebounce
                             _kpInit
                             _kpRead
                         _lcdCommand
                            _lcdData
                            _lcdInit
                            _pwmInit
                              _rtc_r
                        _tocarAlarme
 ---------------------------------------------------------------------------------
 (1) _tocarAlarme                                         12    12      0   15367
                                             12 COMRAM    12    12      0
                            ___awdiv
                            ___awmod
                          _atraso_ms
                         _kpDebounce
                             _kpInit
                             _kpRead
                         _lcdCommand
                            _lcdData
                            _lcdInit
                            _pwmInit
                            _pwmSet1
                              _rtc_r
 ---------------------------------------------------------------------------------
 (2) _rtc_r                                                1     1      0    1070
                                              9 COMRAM     1     1      0
                               _getd
                               _getu
                             _i2c_rb
                          _i2c_start
                           _i2c_stop
                             _i2c_wb
 ---------------------------------------------------------------------------------
 (3) _i2c_wb                                               4     4      0     228
                                              4 COMRAM     4     4      0
                              _delay
 ---------------------------------------------------------------------------------
 (3) _i2c_stop                                             0     0      0     138
                              _delay
 ---------------------------------------------------------------------------------
 (3) _i2c_start                                            0     0      0     138
                              _delay
 ---------------------------------------------------------------------------------
 (3) _i2c_rb                                               5     5      0     252
                                              4 COMRAM     5     5      0
                              _delay
 ---------------------------------------------------------------------------------
 (4) _delay                                                4     4      0     138
                                              0 COMRAM     4     4      0
 ---------------------------------------------------------------------------------
 (3) _getu                                                 1     1      0      22
                                              0 COMRAM     1     1      0
 ---------------------------------------------------------------------------------
 (3) _getd                                                 1     1      0      22
                                              0 COMRAM     1     1      0
 ---------------------------------------------------------------------------------
 (2) _pwmSet1                                              5     5      0    1020
                                              7 COMRAM     5     5      0
                            ___lwdiv
                             ___wmul
 ---------------------------------------------------------------------------------
 (3) ___wmul                                               6     2      4     463
                                              0 COMRAM     6     2      4
 ---------------------------------------------------------------------------------
 (3) ___lwdiv                                              7     3      4     466
                                              0 COMRAM     7     3      4
 ---------------------------------------------------------------------------------
 (2) _pwmInit                                              0     0      0       0
 ---------------------------------------------------------------------------------
 (2) _lcdInit                                              0     0      0    2419
                           _Delay2ms
                         _lcdCommand
                            _pinMode
 ---------------------------------------------------------------------------------
 (3) _pinMode                                              6     2      4     744
                                              0 COMRAM     6     2      4
 ---------------------------------------------------------------------------------
 (3) _lcdCommand                                           2     2      0    1583
                                              6 COMRAM     2     2      0
                           _Delay2ms
                          _Delay40us
                       _digitalWrite
 ---------------------------------------------------------------------------------
 (4) _Delay2ms                                             1     1      0      92
                                              1 COMRAM     1     1      0
                          _Delay40us
 ---------------------------------------------------------------------------------
 (2) _lcdData                                              2     2      0    1447
                                              6 COMRAM     2     2      0
                          _Delay40us
                       _digitalWrite
 ---------------------------------------------------------------------------------
 (4) _digitalWrite                                         6     2      4    1356
                                              0 COMRAM     6     2      4
 ---------------------------------------------------------------------------------
 (4) _Delay40us                                            1     1      0      46
                                              0 COMRAM     1     1      0
 ---------------------------------------------------------------------------------
 (2) _kpRead                                               2     0      2       0
                                              0 COMRAM     2     0      2
 ---------------------------------------------------------------------------------
 (2) _kpInit                                               0     0      0       0
 ---------------------------------------------------------------------------------
 (2) _kpDebounce                                          10    10      0     315
                                              0 COMRAM    10    10      0
 ---------------------------------------------------------------------------------
 (2) _atraso_ms                                            6     4      2     442
                                              0 COMRAM     6     4      2
 ---------------------------------------------------------------------------------
 (2) ___awmod                                              6     2      4    2424
                                              0 COMRAM     6     2      4
 ---------------------------------------------------------------------------------
 (2) ___awdiv                                              8     4      4    2428
                                              0 COMRAM     8     4      4
 ---------------------------------------------------------------------------------
 (1) ___llmod                                              9     1      8     311
                                              0 COMRAM     9     1      8
 ---------------------------------------------------------------------------------
 Estimated maximum stack depth 4
 ---------------------------------------------------------------------------------

 Call Graph Graphs:

 _main (ROOT)
   ___awdiv
   ___awmod
   ___llmod
   _kpDebounce
   _kpInit
   _kpRead
   _lcdCommand
     _Delay2ms
       _Delay40us
     _Delay40us
     _digitalWrite
   _lcdData
     _Delay40us
     _digitalWrite
   _lcdInit
     _Delay2ms
     _lcdCommand
     _pinMode
   _pwmInit
   _rtc_r
     _getd
     _getu
     _i2c_rb
       _delay
     _i2c_start
       _delay
     _i2c_stop
       _delay
     _i2c_wb
       _delay
   _tocarAlarme
     ___awdiv
     ___awmod
     _atraso_ms
     _kpDebounce
     _kpInit
     _kpRead
     _lcdCommand
     _lcdData
     _lcdInit
     _pwmInit
     _pwmSet1
       ___lwdiv
       ___wmul
     _rtc_r

 Address spaces:
Name               Size   Autos  Total    Cost      Usage
BIGRAM             5FF      0       0      17        0.0%
EEDATA             100      0       0       0        0.0%
BITBANK5           100      0       0      16        0.0%
BANK5              100      0       0      14        0.0%
BITBANK4           100      0       0      12        0.0%
BANK4              100      0       0      13        0.0%
BITBANK3           100      0       0      10        0.0%
BANK3              100      0       0      11        0.0%
BITBANK2           100      0       0       8        0.0%
BANK2              100      0      F0       9       93.8%
BITBANK1           100      0       0       6        0.0%
BANK1              100      0      D0       7       81.2%
BITBANK0            80      0       0       4        0.0%
BANK0               80      0      80       5      100.0%
BITCOMRAM           7F      0       0       0        0.0%
COMRAM              7F     1A      77       1       93.7%
BITSFR               0      0       0     200        0.0%
SFR                  0      0       0     200        0.0%
STACK                0      0       0       2        0.0%
NULL                 0      0       0       0        0.0%
ABS                  0      0     2B7      15        0.0%
DATA                 0      0     2B7       3        0.0%
CODE                 0      0       0       0        0.0%


Microchip Technology PIC18 Macro Assembler V2.32 build 20210201212658 
Symbol Table                                                                                   Sun Aug 01 22:56:31 2021

                        _i 0041                         l42 6022                         l76 6270  
                       l89 5234               ___awdiv@sign 004F        ___wmul@multiplicand 004C  
                      l112 522A                        l122 5460                        l202 56A6  
                      l107 5DB4                        l211 54CC                        l108 5DCC  
                      l220 527E                        l109 5DD4                        l205 5340  
                      l141 525A                        l135 53FC                        l208 5628  
                      l152 56B8                        l144 526A                        l153 5700  
                      l154 5718                        l330 6F80                        l171 524A  
                      l156 5728                        l148 538E                        l420 77B8  
                      l149 539C                        l421 782C                        l190 52AA  
                      l174 523E                        l351 71E8                        l335 73D8  
                      l600 6AA4                        l408 7BC6                        l360 72FE  
                      l177 5B6A                        l506 7F16                        l450 7A6A  
                      l442 79E2                        l362 739A                        l354 7256  
                      l195 52C6                        l427 7BB4                        l363 7338  
                      l540 641C                        l460 7B14                        l452 7A8C  
                      l444 7A04                        l348 71AE                        l509 7F54  
                      l357 7290                        l550 64C6                        l542 643E  
                      l462 7B26                        l454 7AAE                        l446 7A26  
                      l366 7388                        l560 658E                        l552 64E8  
                      l544 6460                        l456 7AD0                        l448 7A48  
                      l609 6BDE                        l553 654E                        l554 650A  
                      l546 6482                        l474 7FEA                        l458 7AF2  
                      l619 52EC                        l539 63F6                        l459 7B76  
                      l387 74FA                        l556 652C                        l548 64A4  
                      l388 7696                        l493 7FD8                        l486 7CE8  
                      l487 7D5C                        l399 7684                        l577 67A2  
                      l850 59C2                        l597 6A0C                        l863 58FE  
                      _pos 003F               ___awmod@sign 004F                        wreg 000FE8  
                     l1110 55A8                       l1117 55B0                       l1046 57B0  
                     l1039 57A0                       l4000 67F6                       l4002 67FA  
                     l3300 53D6                       l4100 69AE                       l4020 6850  
                     l4012 6824                       l4004 6816                       l3310 53E6  
                     l4110 69FA                       l4102 69B2                       l4030 686E  
                     l4014 682A                       l4006 681C                       l4200 5790  
                     l3240 529A                       l3232 5294                       l3320 52B4  
                     l3312 52AC                       l3304 53DC                       l3400 539A  
                     l4120 6A6E                       l4104 69CE                       l4040 6898  
                     l4032 688A                       l4016 682E                       l5000 7D70  
                     l4202 579A                       l3250 5E46                       l3242 5DD6  
                     l3322 52B6                       l3330 6072                       l3402 56AA  
                     l4130 6AF8                       l4122 6ADE                       l4114 6A1A  
                     l4106 69D2                       l4050 68E0                       l4042 68AA  
                     l4034 6890                       l4026 6858                       l4018 684A  
                     l5010 7D8E                       l3500 5C60                       l3260 5EDA  
                     l3252 5E62                       l3244 5DF2                       l3340 610C  
                     l3332 6094                       l3324 6024                       l3308 53E2  
                     l3420 56EE                       l3404 56AE                       l4132 6AFC  
                     l4116 6A1E                       l4108 69EE                       l4060 68FE  
                     l4044 68AE                       l4028 686A                       l5100 7FBE  
                     l5020 7DB2                       l5012 7DA4                       l4300 6DE2  
                     l4220 6BEC                       l3510 5CAA                       l3502 5C64  
                     l3238 5298                       l3270 5F6C                       l3262 5EF4  
                     l3254 5E7C                       l3246 5E04                       l3318 52B0  
                     l3350 61A0                       l3342 6128                       l3334 60B0  
                     l3326 6040                       l3430 571E                       l3422 56F0  
                     l3414 56BA                       l3406 56B0                       l4150 6B52  
                     l4142 6B26                       l4134 6B18                       l4118 6A52  
                     l4070 6928                       l4062 691A                       l4046 68CA  
                     l5022 7DC4                       l5014 7DAA                       l5006 7D78  
                     l4310 6E3E                       l4302 6DE6                       l4222 6BF0  
                     l4214 6BE0                       l3520 5CD2                       l3280 6004  
                     l3272 5F8C                       l3264 5F14                       l3256 5E9C  
                     l3248 5E24                       l3360 622A                       l3352 61B2  
                     l3344 613A                       l3336 60C2                       l3328 6052  
                     l3432 5724                       l3424 5702                       l3416 56BE  
                     l3408 56B2                       l3600 5B00                       l4160 6B70  
                     l4144 6B2C                       l4136 6B1E                       l4128 6AE6  
                     l4072 692E                       l4064 6920                       l4056 68E8  
                     l4048 68DA                       l5040 7E18                       l5024 7DC8  
                     l5008 7D8A                       l4400 70A0                       l4320 6EAC  
                     l4312 6E58                       l4304 6E02                       l4240 6C28  
                     l4232 6C04                       l4224 6BF6                       l4216 6BE4  
                     l3530 5D32                       l3274 5FAE                       l3266 5F36  
                     l3258 5EBE                       l3450 5634                       l3362 624E  
                     l3354 61D6                       l3346 615E                       l3338 60E6  
                     l3442 5238                       l3290 53AA                       l3282 539E  
                     l3434 5726                       l3426 5712                       l3418 56EC  
                     l3370 525C                       l3610 5B28                       l3602 5B08  
                     l4170 6B9A                       l4162 6B8C                       l4146 6B30  
                     l4090 698E                       l4074 6932                       l4058 68FA  
                     l5050 7E38                       l5042 7E1E                       l5034 7DEC  
                     l5026 7DDE                       l4410 70C0                       l4402 70A6  
                     l4330 6ECA                       l4314 6E72                       l4306 6E0A  
                     l4250 6C5E                       l4234 6C0A                       l4226 6BFC  
                     l4218 6BE8                       l3700 5934                       l3540 5D8A  
                     l3532 5D66                       l3516 5CB2                       l3508 5C68  
                     l3276 5FCA                       l3268 5F52                       l3460 5678  
                     l3452 5648                       l3356 61FC                       l3348 6184  
                     l3428 571A                       l3364 524C                       l3372 5260  
                     l3620 5B62                       l3612 5B32                       l3604 5B0E  
                     l4180 6BD6                       l4172 6BAC                       l4164 6B92  
                     l4156 6B5A                       l4148 6B4C                       l4092 6994  
                     l4084 695C                       l4076 694E                       l5052 7E3C  
                     l5036 7DFE                       l5028 7DE4                       l4412 70C4  
                     l4332 6EE0                       l4316 6E8C                       l4308 6E24  
                     l4252 6C62                       l4236 6C0E                       l4190 5740  
                     l3710 5962                       l3702 5938                       l3550 5DD0  
                     l3542 5DA2                       l3534 5D68                       l3526 5CD6  
                     l3518 5CB6                       l3278 5FE4                       l3630 5310  
                     l3622 52F0                       l3462 568A                       l3454 564C  
                     l3446 562C                       l3358 6218                       l3470 52E4  
                     l3438 5242                       l3294 53BE                       l3366 5250  
                     l3374 5264                       l3390 537A                       l3614 5B4E  
                     l3606 5B18                       l4182 6BD8                       l4174 6BB0  
                     l4158 6B6C                       l4086 696E                       l4078 6954  
                     l5070 7EAC                       l5062 7E60                       l5054 7E52  
                     l5038 7E02                       l4502 734E                       l4430 7118  
                     l4422 70E8                       l4414 70DA                       l4350 6F5A  
                     l4334 6EE4                       l4326 6EB4                       l4318 6EA6  
                     l4270 6D12                       l4254 6C78                       l4246 6C30  
                     l4238 6C24                       l4192 5748                       l3720 5996  
                     l3712 5970                       l3704 5940                       l3544 5DA8  
                     l3536 5D78                       l3528 5D02                       l3552 5222  
                     l3632 5324                       l3624 52F4                       l3464 569A  
                     l3456 5660                       l3448 5630                       l3640 55DA  
                     l3480 5560                       l3296 53C2                       l3288 53A6  
                     l3368 5254                       l3392 537C                       l3384 534A  
                     l3376 5344                       l3616 5B52                       l3608 5B20  
                     l4184 6BDA                       l4088 6972                       l3800 62EE  
                     l5080 7F0A                       l5072 7EB0                       l5064 7E72  
                     l5056 7E58                       l5048 7E26                       l4600 752C  
                     l4520 73A8                       l4504 736A                       l4512 739A  
                     l4440 716E                       l4432 7134                       l4424 70FA  
                     l4416 70E0                       l4408 70AE                       l4352 6F5E  
                     l4344 6F18                       l4336 6F00                       l4328 6EC6  
                     l4280 6D32                       l4272 6D18                       l4264 6CE6  
                     l4256 6CD8                       l4248 6C4C                       l4194 5754  
                     l3722 599C                       l3714 5976                       l3706 5952  
                     l3562 5422                       l3554 53FE                       l3546 5DAC  
                     l3538 5D7A                       l3634 5338                       l3626 52F8  
                     l3466 56A2                       l3458 5674                       l3650 55EE  
                     l3642 55DE                       l3490 559A                       l3482 5568  
                     l3474 553E                       l3394 537E                       l3386 5374  
                     l3378 5346                       l3618 5B5A                       l4186 6BDC  
                     l4098 699C                       l4178 6BD0                       l3810 6318  
                     l3802 630A                       l5090 7FA0                       l5082 7F24  
                     l5074 7ECC                       l5066 7E76                       l4610 7550  
                     l4602 7542                       l4522 73BA                       l4514 73A0  
                     l4506 736E                       l4450 71DC                       l4442 7176  
                     l4434 7140                       l4426 70FE                       l4370 6FCC  
                     l4354 6F62                       l4338 6F10                       l4290 6D96  
                     l4282 6D36                       l4266 6CF8                       l4258 6CDE  
                     l4196 5762                       l4188 572A                       l3716 598C  
                     l3708 595A                       l3724 59A2                       l3740 586E  
                     l3732 5850                       l3572 5440                       l3564 5426  
                     l3556 540A                       l3548 5DC4                       l3636 533C  
                     l3628 530C                       l3660 5606                       l3652 55F2  
                     l3644 55E2                       l3492 559C                       l3484 5576  
                     l3476 5546                       l3468 52C8                       l3396 5390  
                     l3388 5376                       l3580 5A94                       l3900 656E  
                     l3812 632A                       l3804 6310                       l5084 7F48  
                     l5076 7ED8                       l5068 7E8C                       l4700 7702  
                     l4612 7556                       l4604 7548                       l4540 7420  
                     l4524 73BE                       l4460 7216                       l4444 7190  
                     l4436 714E                       l4428 7114                       l4380 703A  
                     l4372 702C                       l4364 6F96                       l4356 6F66  
                     l4348 6F46                       l4292 6DB2                       l4284 6D4C  
                     l4268 6CFC                       l4198 5780                       l3726 59B2  
                     l3718 5994                       l3750 58A6                       l3742 587C  
                     l3734 5854                       l3558 540E                       l3670 5622  
                     l3662 560A                       l3654 55F8                       l3646 55E6  
                     l3638 55B2                       l3494 55A2                       l3486 557C  
                     l3478 5558                       l3398 5394                       l3590 5ADA  
                     l3582 5AB8                       l3910 65A4                       l3902 6572  
                     l3830 638A                       l3814 632E                       l5078 7EE6  
                     l4710 7726                       l4702 7718                       l4630 75AA  
                     l4614 755A                       l4550 7440                       l4542 7426  
                     l4534 73F4                       l4526 73E6                       l4470 7284  
                     l4462 721E                       l4446 71BC                       l4438 7152  
                     l4382 704C                       l4374 7032                       l4366 6FB2  
                     l4358 6F8E                       l4294 6DBA                       l4286 6D58  
                     l4278 6D20                       l3728 59BA                       l3752 58B4  
                     l3760 58DE                       l3744 5884                       l3736 5862  
                     l3568 543A                       l3576 5446                       l3496 522C  
                     l3664 5610                       l3656 55FC                       l3648 55EA  
                     l3488 5592                       l3680 54BE                       l3672 5464  
                     l3592 5ADE                       l3584 5ABC                       l3912 65CE  
                     l3904 659C                       l3840 63AA                       l3832 6390  
                     l3824 6358                       l3816 634A                       l5096 7FA8  
                     l5088 7F66                       l4712 7738                       l4704 771E  
                     l4640 75CA                       l4632 75B0                       l4624 757E  
                     l4616 7570                       l4552 7444                       l4536 7406  
                     l4528 73EC                       l4480 72BE                       l4464 7238  
                     l4456 71F6                       l4448 71C2                       l4384 7050  
                     l4368 6FB6                       l4296 6DBE                       l4288 6D92  
                     l3690 5904                       l3762 58EE                       l3754 58CA  
                     l3746 5896                       l3738 586A                       l3578 544A  
                     l3498 5C5C                       l3666 5616                       l3658 5600  
                     l3682 526C                       l3674 5482                       l3594 5AE6  
                     l3586 5AC4                       l3914 65D2                       l3850 6404  
                     l3842 63AE                       l3826 636A                       l3818 6350  
                     l3770 6282                       l5098 7FBA                       l4810 791C  
                     l4730 778C                       l4714 773C                       l4650 7610  
                     l4642 75CE                       l4626 7590                       l4618 7576  
                     l4570 749A                       l4562 7468                       l4554 745A  
                     l4538 740A                       l4490 732C                       l4482 72C6  
                     l4466 7264                       l4458 71FA                       l4394 7074  
                     l4386 7066                       l4298 6DDA                       l3692 5912  
                     l3764 58F6                       l3756 58D2                       l3748 589E  
                     l3668 561C                       l3684 5270                       l3676 549E  
                     l3596 5AEE                       l3588 5ACC                       l3940 6650  
                     l3932 6618                       l3924 660A                       l3916 65D6  
                     l3852 6414                       l3844 63CA                       l3828 636E  
                     l3780 6296                       l3772 6284                       l4900 7B76  
                     l4820 793C                       l4812 7922                       l4804 78F0  
                     l4740 77E6                       l4732 7790                       l4724 7760  
                     l4716 7752                       l4660 764C                       l4652 761E  
                     l4644 75E4                       l4628 7594                       l4580 74B8  
                     l4564 747A                       l4556 7460                       l4548 742E  
                     l4484 72E0                       l4476 729E                       l4468 726A  
                     l4396 7086                       l4388 706C                       l3694 591A  
                     l3758 58D8                       l3686 5274                       l3678 54A6  
                     l3598 5AF8                       l3950 666E                       l3934 662A  
                     l3926 6610                       l3918 65F2                       l3870 64B2  
                     l3862 646E                       l3854 642A                       l3846 63CE  
                     l3838 6398                       l3790 62D0                       l3782 629C  
                     l3774 6288                       l4910 7B96                       l4902 7B7C  
                     l4830 7966                       l4822 7940                       l4806 7902  
                     l4750 77FC                       l4742 77EE                       l4734 77AC  
                     l4726 7772                       l4718 7758                       l4670 766A  
                     l4654 7632                       l4646 75E8                       l4638 75B8  
                     l4590 750E                       l4582 74CE                       l4566 747E  
                     l4486 730C                       l4478 72A2                       l4398 708A  
                     l3696 591E                       l3688 5900                       l3960 669E  
                     l3952 668A                       l3936 662E                       l3848 63EA  
                     l3784 62B0                       l3776 628C                       l3768 6272  
                     l4912 7B9A                       l4840 79B0                       l4832 7976  
                     l4824 7956                       l4808 7906                       l4752 780E  
                     l4744 77F4                       l4736 77C6                       l4728 7776  
                     l4656 763E                       l4648 7604                       l4584 74D2  
                     l4576 74A2                       l4568 7494                       l4496 7346  
                     l4488 7312                       l3698 592C                       l3962 66AE  
                     l3954 6696                       l3946 6658                       l3938 664A  
                     l3882 6518                       l3874 64D4                       l3866 6490  
                     l3858 644C                       l3890 654E                       l3786 62B8  
                     l3778 6290                       l4930 7C0E                       l4842 79BC  
                     l4834 797A                       l4818 792A                       l4770 7874  
                     l4754 7812                       l4738 77DA                       l4690 76E4  
                     l4682 76B2                       l4674 76A4                       l4666 7654  
                     l4658 7646                       l4586 74EE                       l4578 74B4  
                     l3980 6702                       l3964 66B2                       l3948 666A  
                     l3892 6554                       l3796 62D8                       l3788 62CA  
                     l4940 7C2E                       l4932 7C14                       l4924 7BE2  
                     l4916 7BD4                       l4908 7B84                       l4860 7A56  
                     l4852 7A12                       l4844 79CA                       l4836 7990  
                     l4780 7892                       l4764 7848                       l4756 783A  
                     l4684 76C4                       l4676 76AA                       l4668 7666  
                     l4596 7516                       l4588 7508                       l3990 676C  
                     l3974 66DC                       l3966 66CE                       l3982 670A  
                     l3886 653A                       l3878 64F6                       l3798 62EA  
                     l4942 7C32                       l4926 7BF4                       l4918 7BDA  
                     l4846 79DA                       l4838 7994                       l4790 78B6  
                     l4782 78A8                       l4766 785A                       l4758 7840  
                     l4686 76C8                       l4598 7528                       l3992 67DC  
                     l3984 6718                       l3976 66E2                       l3968 66D4  
                     l4960 7C88                       l4952 7C56                       l4944 7C48  
                     l4928 7BF8                       l4880 7B00                       l4872 7ABC  
                     l4864 7A78                       l4856 7A34                       l4848 79F0  
                     l4792 78C8                       l4784 78AE                       l4776 787C  
                     l4768 785E                       l4696 76EC                       l4688 76DE  
                     l3986 671C                       l3978 66E6                       l3898 655C  
                     l4970 7CA6                       l4954 7C68                       l4946 7C4E  
                     l4938 7C1C                       l4794 78CC                       l4778 788E  
                     l4698 76FE                       l3988 6750                       l4980 7D0A  
                     l4972 7CBC                       l4956 7C6C                       l4876 7ADE  
                     l4868 7A9A                       l4796 78E2                       l3998 67E4  
                     l4982 7D16                       l4974 7CC0                       l4966 7C90  
                     l4958 7C82                       l4894 7B3C                       l4798 78E8  
                     l4992 7D2C                       l4984 7D1E                       l4976 7CDC  
                     l4968 7CA2                       l4896 7B58                       l4888 7B34  
                     l4994 7D3E                       l4986 7D24                       l4978 7CF6  
                     l4898 7B5C                       l4996 7D42                       l4998 7D6A  
                     u3000 569A                       u3001 5696                       u3010 5558  
                     u3011 5554                       u3020 5576                       u3021 5572  
                     u3110 5D78                       u3030 5592                       u3111 5D74  
                     u3031 558E                       u3200 5952                       u3120 5D8A  
                     u3104 5D50                       u4000 71DC                       u3201 594E  
                     u3121 5D86                       u3105 5D4A                       u4001 71D8  
                     u3210 5970                       u3130 5DA2                       u4010 71F6  
                     u3211 596C                       u3131 5D9E                       u4011 71F2  
                     u3220 598C                       u3140 5DC4                       u3060 5CD2  
                     u3044 5C7E                       u2500 5E04                       u3300 62B0  
                     u4100 7384                       u4020 7216                       u3221 5988  
                     u3141 5DC0                       u3061 5CCE                       u3045 5C7A  
                     u2501 5E00                       u3301 62AC                       u4101 7380  
                     u4021 7212                       u3230 59B2                       u3150 541E  
                     u3054 5C9E                       u3310 62CA                       u4110 7396  
                     u4030 7264                       u3231 59AE                       u3151 541A  
                     u3055 5C9A                       u3311 62C6                       u4111 7392  
                     u4031 7260                       u3240 5862                       u3160 5436  
                     u3080 5D02                       u3400 646E                       u3320 630A  
                     u4200 7542                       u4120 73D4                       u4040 7284  
                     u3241 585E                       u3161 5432                       u3081 5CFE  
                     u3401 646A                       u3321 6306                       u4201 753E  
                     u4121 73D0                       u4041 7280                       u3250 587C  
                     u3170 5460                       u3074 5CE8                       u2610 5F52  
                     u2530 5E62                       u2514 5E16                       u3410 6490  
                     u3330 634A                       u4210 7570                       u4130 73E6  
                     u4050 729E                       u3251 5878                       u3171 545C  
                     u3075 5CE4                       u2611 5F4E                       u2531 5E5E  
                     u2515 5E12                       u3411 648C                       u3331 6346  
                     u4211 756C                       u4131 73E2                       u4051 729A  
                     u3180 5912                       u3260 5896                       u2620 5F6C  
                     u2604 5F26                       u2540 5E7C                       u2524 5E36  
                     u2700 53D2                       u3500 65F2                       u3420 64B2  
                     u3340 638A                       u4300 76DE                       u4220 75AA  
                     u4140 7420                       u4060 72BE                       u3181 590E  
                     u3261 5892                       u2621 5F68                       u2605 5F22  
                     u2541 5E78                       u2525 5E32                       u2701 53CE  
                     u3501 65EE                       u3421 64AE                       u3341 6386  
                     u4301 76DA                       u4221 75A6                       u4141 741C  
                     u4061 72BA                       u3190 592C                       u3270 58B4  
                     u3094 5D20                       u2710 53FC                       u3510 6606  
                     u3430 64D4                       u3350 63CA                       u4310 7718  
                     u4230 75E4                       u4150 745A                       u4070 730C  
                     u3191 5928                       u3271 58B0                       u3095 5D1A  
                     u2711 53F8                       u3511 6602                       u3431 64D0  
                     u3351 63C6                       u4311 7714                       u4231 75E0  
                     u4151 7456                       u4071 7308                       u3280 58CA  
                     u2480 52AA                       u2720 52C6                       u3600 688A  
                     u3520 664A                       u3440 64F6                       u3360 63EA  
                     u4400 78A8                       u4320 7752                       u4240 7604  
                     u4160 7494                       u4080 732C                       u3281 58C6  
                     u2481 52A6                       u2721 52C2                       u3601 6886  
                     u3521 6646                       u3441 64F2                       u3361 63E6  
                     u4401 78A4                       u4321 774E                       u4241 7600  
                     u4161 7490                       u4081 7328                       u3290 58EE  
                     u2650 5FCA                       u2634 5F7E                       u2570 5EDA  
                     u2554 5E8E                       u2490 5DF2                       u2810 6128  
                     u2730 6040                       u3610 68CA                       u3530 668A  
                     u3450 6518                       u3370 6404                       u4410 78E2  
                     u4330 778C                       u4250 761E                       u4170 74CE  
                     u4090 7346                       u3291 58EA                       u2651 5FC6  
                     u2635 5F7A                       u2571 5ED6                       u2555 5E8A  
                     u2491 5DEE                       u2811 6124                       u2731 603C  
                     u3611 68C6                       u3531 6686                       u3451 6514  
                     u3371 6400                       u4411 78DE                       u4331 7788  
                     u4251 761A                       u4171 74CA                       u4091 7342  
                     u2660 5FE4                       u2644 5F9E                       u2580 5EF4  
                     u2564 5EAE                       u2900 622A                       u2820 613A  
                     u2804 60FC                       u2740 6052                       u3700 6B18  
                     u3620 691A                       u3540 66CE                       u3460 653A  
                     u3380 642A                       u4500 7A56                       u4420 791C  
                     u4340 77AC                       u4260 7632                       u4180 74EE  
                     u2661 5FE0                       u2645 5F9A                       u2581 5EF0  
                     u2565 5EAA                       u2901 6226                       u2821 6136  
                     u2805 60F8                       u2741 604E                       u3701 6B14  
                     u3621 6916                       u3541 66CA                       u3461 6536  
                     u3381 6426                       u4501 7A52                       u4421 7918  
                     u4341 77A8                       u4261 762E                       u4181 74EA  
                     u3710 6B4C                       u3630 694E                       u3550 6702  
                     u3470 658E                       u3390 644C                       u4510 7A78  
                     u4430 7956                       u4350 77C6                       u4270 7680  
                     u4190 7508                       u3711 6B48                       u3631 694A  
                     u3551 66FE                       u3471 658A                       u3391 6448  
                     u4511 7A74                       u4431 7952                       u4351 77C2  
                     u4271 767C                       u4191 7504                       u3720 6B8C  
                     u3640 698E                       u3560 6718                       u3480 659C  
                     u4600 7BC2                       u4520 7A9A                       u4440 7990  
                     u4360 77DA                       u4280 7692                       u3800 6D4C  
                     u3721 6B88                       u3641 698A                       u3561 6714  
                     u3481 6598                       u4601 7BBE                       u4521 7A96  
                     u4441 798C                       u4361 77D6                       u4281 768E  
                     u3801 6D48                       u2674 5FF6                       u2594 5F06  
                     u2914 6240                       u2850 61A0                       u2834 6150  
                     u2770 60B0                       u2754 6064                       u2690 53BA  
                     u3730 6BCC                       u3650 69CE                       u3570 676C  
                     u3490 65CE                       u4610 7BD4                       u4530 7ABC  
                     u4450 79B0                       u4370 7828                       u4290 76A4  
                     u3810 6D92                       u2675 5FF2                       u2595 5F02  
                     u2915 623C                       u2851 619C                       u2835 614C  
                     u2771 60AC                       u2755 6060                       u2691 53B6  
                     u3731 6BC8                       u3651 69CA                       u3571 6768  
                     u3491 65CA                       u4611 7BD0                       u4531 7AB8  
                     u4451 79AC                       u4371 7824                       u4291 76A0  
                     u3811 6D8E                       u3740 5740                       u2684 6016  
                     u2924 6264                       u2860 61B2                       u2844 6174  
                     u2780 60C2                       u2764 6084                       u2940 538E  
                     u3660 69EE                       u3580 6816                       u4700 7D6A  
                     u4620 7C0E                       u4540 7ADE                       u4460 79CA  
                     u4380 783A                       u3900 6F8E                       u3820 6DB2  
                     u3741 573C                       u2685 6012                       u2925 6260  
                     u2861 61AE                       u2845 6170                       u2781 60BE  
                     u2765 6080                       u2941 538A                       u3661 69EA  
                     u3581 6812                       u4701 7D66                       u4621 7C0A  
                     u4541 7ADA                       u4461 79C6                       u4381 7836  
                     u3901 6F8A                       u3821 6DAE                       u3750 5762  
                     u2950 56D6                       u2934 535E                       u3670 6A08  
                     u3590 684A                       u4710 7DA4                       u4630 7C48  
                     u4550 7B00                       u4470 79F0                       u4390 7874  
                     u3910 6FCC                       u3830 6DDA                       u3751 575E  
                     u2951 56CE                       u2935 535A                       u3671 6A04  
                     u3591 6846                       u4711 7DA0                       u4631 7C44  
                     u4551 7AFC                       u4471 79EC                       u4391 7870  
                     u3911 6FC8                       u3831 6DD6                       u3760 5780  
                     u3680 6A1A                       u4800 7F48                       u4720 7DDE  
                     u4640 7C82                       u4560 7B22                       u4480 7A12  
                     u3920 7066                       u3840 6E02                       u3761 577C  
                     u3681 6A16                       u4801 7F44                       u4721 7DDA  
                     u4641 7C7E                       u4561 7B1E                       u4481 7A0E  
                     u3921 7062                       u3841 6DFE                       u2890 6218  
                     u2874 61C8                       u2794 60D8                       u2970 5700  
                     u3690 6A6E                       u4810 7F62                       u4730 7E18  
                     u4650 7CBC                       u4570 7B34                       u4490 7A34  
                     u3930 70A0                       u3850 6EE0                       u3770 6C24  
                     u2891 6214                       u2875 61C4                       u2795 60D4  
                     u2971 56FC                       u3691 6A6A                       u4811 7F5E  
                     u4731 7E14                       u4651 7CB8                       u4571 7B30  
                     u4491 7A30                       u3931 709C                       u3851 6EDC  
                     u3771 6C20                       u2884 61EC                       u2980 5712  
                     u2964 56E2                       u4820 7FD4                       u4740 7E52  
                     u4660 7CDC                       u4580 7B72                       u3940 70DA  
                     u3860 6F00                       u3780 6C78                       u2885 61E8  
                     u2981 570E                       u2965 56DE                       u4821 7FD0  
                     u4741 7E4E                       u4661 7CD8                       u4581 7B6E  
                     u3941 70D6                       u3861 6EFC                       u3781 6C74  
                     u2990 568A                       u2958 56D8                       u4830 7FE6  
                     u4750 7E8C                       u4670 7CF6                       u4590 7BB0  
                     u3950 7114                       u3870 6F42                       u3790 6D12  
                     u2991 5686                       u4831 7FE2                       u4751 7E88  
                     u4671 7CF2                       u4591 7BAC                       u3951 7110  
                     u3871 6F3E                       u3791 6D0E                       u4840 7FF8  
                     u4760 7ECC                       u4680 7D0A                       u3960 7134  
                     u3880 6F5A                       u4841 7FF4                       u4761 7EC8  
                     u4681 7D06                       u3961 7130                       u3881 6F56  
                     u4770 7EE6                       u4690 7D58                       u3970 714E  
                     u3890 6F7C                       u4771 7EE2                       u4691 7D54  
                     u3971 714A                       u3891 6F78                       u4780 7F0A  
                     u3980 716E                       u4781 7F06                       u3981 716A  
                     u4790 7F24                       u3990 71BC                       u4791 7F20  
                     u3991 71B8                       _date 001B                       _getd 5240  
                     _cont 002D                       _getu 5236                       _main 6BE0  
                     _time 0011                       indf1 000FE7                       indf2 000FDF  
                     fsr1l 000FE1                       fsr2l 000FD9                       prodh 000FF4  
                     prodl 000FF3                       start 0000               ___param_bank 000000  
                    ?_getd 004A                      ?_getu 004A                      ?_main 004A  
           _msg_alarm_ativ 0200            __end_of___awdiv 59C4            __end_of___awmod 5900  
          ___awdiv@divisor 004C            __end_of___llmod 57B2            __end_of___lwdiv 55B2  
          ___awdiv@counter 004E                      _PORTA 000F80                      _PORTB 000F81  
                    _PORTC 000F82                      _PORTD 000F83                      _PORTE 000F84  
                    _TRISA 000F92                      _TRISB 000F93                      _TRISC 000F94  
                    _TRISD 000F95                      _TRISE 000F96            __end_of_lcdData 5342  
          __end_of_lcdInit 562A                      _delay 539E                      _h_rel 003D  
                    _m_rel 003B                      _s_rel 0039                      _tecla 0076  
                    _senha 0029            __end_of_pinMode 6272                      _valor 0047  
                    _rtc_r 5A94                      tablat 000FF5             _msg_ajus_alarm 0180  
          __end_of_pwmSet1 54CE            __end_of_pwmInit 5280                      status 000FD8  
           _msg_ajus_tempo 0270           __end_of_Delay2ms 52C8       __end_of_digitalWrite 6024  
          __initialization 57B2               __end_of_getd 524C               __end_of_getu 5240  
             __end_of_main 8000         __size_of_Delay40us 0018           __end_of_i2c_stop 526C  
                   ??_getd 004A                     ??_getu 004A                     ??_main 0062  
            __activetblptr 000000                     ?_delay 004A           ___llmod@dividend 004A  
         ___awdiv@dividend 004A                     ?_rtc_r 004A         __size_of_i2c_start 0010  
                   _i2c_rb 56A8                     _i2c_wb 5342                     ___wmul 52C8  
                ??___awdiv 004E                  ??___awmod 004E                     _h_alar 0037  
                ??___llmod 0052                  ??___lwdiv 004E                     _m_alar 0035  
                   _kpInit 5222                     _kpRead 522C                     _s_alar 0033  
                   delay@i 004A                     delay@j 004C                     delay@k 004D  
                   clear_0 5838                     clear_1 5844           ___awdiv@quotient 0050  
          ___awmod@divisor 004C                  ??_lcdData 0050                     isa$std 000001  
                   getd@nn 004A                  ??_lcdInit 0052            ___awmod@counter 004E  
                   getu@nn 004A               ?_tocarAlarme 004A               __pdataCOMRAM 0064  
                ??_pinMode 004E                     tblptrh 000FF7                     tblptrl 000FF6  
                   tblptru 000FF8                  ??_pwmSet1 0051                  ??_pwmInit 004A  
        __end_of_Delay40us 52AC                 __accesstop 0080    __end_of__initialization 584A  
            ___rparam_used 000001                pinMode@type 004C             __pcstackCOMRAM 004A  
             __pidataBANK0 54CE               __pidataBANK1 59C4               __pidataBANK2 5B6C  
            __end_of_delay 53FE              __end_of_rtc_r 5B6C          __end_of_i2c_start 525C  
                ?_Delay2ms 004A                    ??_delay 004A                    ??_rtc_r 0053  
       __size_of_atraso_ms 0064                 __pbssBANK0 00F0                  ?_i2c_stop 004A  
    __size_of_digitalWrite 024E                    ?_i2c_rb 004A                    ?_i2c_wb 004A  
               _lcdCommand 562A                    ?___wmul 004A                    ?_kpInit 004A  
                  ?_kpRead 004A                 _kpDebounce 5C5C                 ??_Delay2ms 004B  
             _digitalWrite 5DD6                    i2c_rb@i 0052                    i2c_wb@i 0051  
               ??_i2c_stop 004E                    __Hparam 0000            __size_of_i2c_rb 0082  
          __size_of_i2c_wb 005C                    __Lparam 0000            kpDebounce@old_D 004F  
          kpDebounce@tempo 0049                    ___awdiv 5900                    ___awmod 5850  
          __size_of___wmul 0026                    ___llmod 572A                    ___lwdiv 553E  
        __end_of_atraso_ms 5462            __size_of_kpInit 000A            __size_of_kpRead 000A  
                  __pcinit 57B2                    _lcdData 52EE                    __ramtop 0600  
                  _lcdInit 55B2                    __ptext0 6BE0                    __ptext1 6272  
                  __ptext2 5A94                    __ptext3 5342                    __ptext4 525C  
                  __ptext5 524C                    __ptext6 56A8                    __ptext7 539E  
                  __ptext8 5236                    __ptext9 5240                    _pinMode 6024  
         ___awmod@dividend 004A       __size_of_tocarAlarme 096E                    _pwmSet1 5462  
                  _pwmInit 526C                  Delay2ms@i 004B        kpDebounce@valorNovo 0045  
     end_of_initialization 584A                 _msg_soneca 0100                    postdec1 000FE5  
              ?_lcdCommand 004A                    postinc0 000FEE                    postinc1 000FE6  
                  postinc2 000FDE                ?_kpDebounce 004A                  _PORTCbits 000F82  
                _TRISCbits 000F94  tocarAlarme@senha_digitada 0058                  i2c_rb@ack 0050  
                i2c_rb@ret 0051                  _Delay40us 5294                  i2c_wb@val 0050  
           __end_of_i2c_rb 572A             __end_of_i2c_wb 539E                 atraso_ms@i 004C  
               atraso_ms@j 004E                 atraso_ms@k 004F             __end_of___wmul 52EE  
            __pidataCOMRAM 5280             __end_of_kpInit 522C             __end_of_kpRead 5236  
            _msg_alt_senha 02B0        start_initialization 57B2                  _i2c_start 524C  
        __size_of_Delay2ms 001C        __size_of_lcdCommand 007E        __size_of_kpDebounce 017A  
               ?_Delay40us 004A            ___llmod@divisor 004E            ___llmod@counter 0052  
        __size_of_i2c_stop 0010                   ??_i2c_rb 004E                   ??_i2c_wb 004E  
            _msg_opc_alarm 0140                   ??___wmul 004E                   ??_kpInit 004A  
                 ??_kpRead 004C                __pdataBANK0 0080                __pdataBANK1 0100  
              __pdataBANK2 0200            tocarAlarme@cont 005E              _msg_principal 01B0  
              __pbssCOMRAM 0001                 pinMode@pin 004A                 ?_i2c_start 004A  
         ___lwdiv@dividend 004A                   ?___awdiv 004A                   ?___awmod 004A  
                 ?___llmod 004A                   ?___lwdiv 004A                   ?_lcdData 004A  
                 ?_lcdInit 004A              lcdCommand@cmd 0051                  _atraso_ms 53FE  
                _aux_alarm 00F0                   ?_pinMode 004A                  _aux_senha 0025  
                _aux_tempo 0031                   ?_pwmSet1 004A                   ?_pwmInit 004A  
                _hor_alarm 0064           ___lwdiv@quotient 004E             __size_of_delay 0060  
           __size_of_rtc_r 00D8             atraso_ms@valor 004A                ??_Delay40us 004A  
           ___wmul@product 004E                  _msg_senha 0080                  _msg_luzes 00C0  
             ??_lcdCommand 0050                  _tempo_son 0074                 pwmSet1@val 0054  
             ??_kpDebounce 004A              ??_tocarAlarme 0056          ___wmul@multiplier 004A  
               ?_atraso_ms 004A            lcdCommand@old_D 0050      kpDebounce@valorAntigo 0043  
                 _Delay2ms 52AC                ??_i2c_start 004E                  copy_data0 57C6  
                copy_data1 57E6                  copy_data2 5806                  copy_data3 5826  
       __end_of_lcdCommand 56A8               lcdData@old_D 0051               lcdData@valor 0050  
                 _i2c_stop 525C         __end_of_kpDebounce 5DD6                   __Hrparam 0000  
                 __Lrparam 0000             tocarAlarme@tmp 005C           __size_of___awdiv 00C4  
         __size_of___awmod 00B0           __size_of___llmod 0088           __size_of___lwdiv 0074  
          pwmSet1@porcento 0053           __size_of_lcdData 0054           __size_of_lcdInit 0078  
         __size_of_pinMode 024E            ___lwdiv@divisor 004C            ___lwdiv@counter 0050  
      __end_of_tocarAlarme 6BE0                   __ptext10 5462                   __ptext11 52C8  
                 __ptext20 5294                   __ptext12 553E                   __ptext21 522C  
                 __ptext13 526C                   __ptext22 5222                   __ptext14 55B2  
                 __ptext23 5C5C                   __ptext15 6024                   __ptext24 53FE  
                 __ptext16 562A                   __ptext25 5850                   __ptext17 52AC  
                 __ptext26 5900                   __ptext18 52EE                   __ptext27 572A  
                 __ptext19 5DD6           __size_of_pwmSet1 006C           __size_of_pwmInit 0014  
            __size_of_getd 000C              __size_of_getu 000A              __size_of_main 1420  
                 _hor_relo 0001                 Delay40us@i 004A                   isa$xinst 000000  
              ??_atraso_ms 004C              ?_digitalWrite 004A          digitalWrite@value 004C  
                 rtc_r@tmp 0053               tocarAlarme@i 0060                _tocarAlarme 6272  
              kpDebounce@i 0053                kpDebounce@j 0052                kpDebounce@k 0050  
           ??_digitalWrite 004E            digitalWrite@pin 004A  
